ARM GAS  C:\Users\Rolf\AppData\Local\Temp\ccnUdI9r.s 			page 1


   1              		.syntax unified
   2              		.cpu cortex-m3
   3              		.fpu softvfp
   4              		.eabi_attribute 20, 1
   5              		.eabi_attribute 21, 1
   6              		.eabi_attribute 23, 3
   7              		.eabi_attribute 24, 1
   8              		.eabi_attribute 25, 1
   9              		.eabi_attribute 26, 1
  10              		.eabi_attribute 30, 1
  11              		.eabi_attribute 34, 1
  12              		.eabi_attribute 18, 4
  13              		.thumb
  14              		.syntax unified
  15              		.file	"cyfitter_cfg.c"
  16              		.text
  17              	.Ltext0:
  18              		.cfi_sections	.debug_frame
  19              		.section	.text.CyClockStartupError,"ax",%progbits
  20              		.align	2
  21              		.thumb
  22              		.thumb_func
  23              		.type	CyClockStartupError, %function
  24              	CyClockStartupError:
  25              	.LFB3:
  26              		.file 1 "Generated_Source\\PSoC5\\cyfitter_cfg.c"
   1:Generated_Source\PSoC5/cyfitter_cfg.c **** 
   2:Generated_Source\PSoC5/cyfitter_cfg.c **** /*******************************************************************************
   3:Generated_Source\PSoC5/cyfitter_cfg.c **** * File Name: cyfitter_cfg.c
   4:Generated_Source\PSoC5/cyfitter_cfg.c **** * 
   5:Generated_Source\PSoC5/cyfitter_cfg.c **** * PSoC Creator  4.4
   6:Generated_Source\PSoC5/cyfitter_cfg.c **** *
   7:Generated_Source\PSoC5/cyfitter_cfg.c **** * Description:
   8:Generated_Source\PSoC5/cyfitter_cfg.c **** * This file contains device initialization code.
   9:Generated_Source\PSoC5/cyfitter_cfg.c **** * Except for the user defined sections in CyClockStartupError(), this file should not be modified.
  10:Generated_Source\PSoC5/cyfitter_cfg.c **** * This file is automatically generated by PSoC Creator.
  11:Generated_Source\PSoC5/cyfitter_cfg.c **** *
  12:Generated_Source\PSoC5/cyfitter_cfg.c **** ********************************************************************************
  13:Generated_Source\PSoC5/cyfitter_cfg.c **** * Copyright (c) 2007-2020 Cypress Semiconductor.  All rights reserved.
  14:Generated_Source\PSoC5/cyfitter_cfg.c **** * You may use this file only in accordance with the license, terms, conditions, 
  15:Generated_Source\PSoC5/cyfitter_cfg.c **** * disclaimers, and limitations in the end user license agreement accompanying 
  16:Generated_Source\PSoC5/cyfitter_cfg.c **** * the software package with which this file was provided.
  17:Generated_Source\PSoC5/cyfitter_cfg.c **** ********************************************************************************/
  18:Generated_Source\PSoC5/cyfitter_cfg.c **** 
  19:Generated_Source\PSoC5/cyfitter_cfg.c **** #include <string.h>
  20:Generated_Source\PSoC5/cyfitter_cfg.c **** #include "cytypes.h"
  21:Generated_Source\PSoC5/cyfitter_cfg.c **** #include "cydevice_trm.h"
  22:Generated_Source\PSoC5/cyfitter_cfg.c **** #include "cyfitter.h"
  23:Generated_Source\PSoC5/cyfitter_cfg.c **** #include "CyLib.h"
  24:Generated_Source\PSoC5/cyfitter_cfg.c **** #include "cyfitter_cfg.h"
  25:Generated_Source\PSoC5/cyfitter_cfg.c **** #include "cyapicallbacks.h"
  26:Generated_Source\PSoC5/cyfitter_cfg.c **** 
  27:Generated_Source\PSoC5/cyfitter_cfg.c **** #define CY_NEED_CYCLOCKSTARTUPERROR 1
  28:Generated_Source\PSoC5/cyfitter_cfg.c **** 
  29:Generated_Source\PSoC5/cyfitter_cfg.c **** 
  30:Generated_Source\PSoC5/cyfitter_cfg.c **** #if defined(__GNUC__) || defined(__ARMCC_VERSION)
  31:Generated_Source\PSoC5/cyfitter_cfg.c ****     #define CYPACKED 
ARM GAS  C:\Users\Rolf\AppData\Local\Temp\ccnUdI9r.s 			page 2


  32:Generated_Source\PSoC5/cyfitter_cfg.c ****     #define CYPACKED_ATTR __attribute__ ((packed))
  33:Generated_Source\PSoC5/cyfitter_cfg.c ****     #define CYALIGNED __attribute__ ((aligned))
  34:Generated_Source\PSoC5/cyfitter_cfg.c ****     #define CY_CFG_UNUSED __attribute__ ((unused))
  35:Generated_Source\PSoC5/cyfitter_cfg.c ****     #ifndef CY_CFG_SECTION
  36:Generated_Source\PSoC5/cyfitter_cfg.c ****         #define CY_CFG_SECTION __attribute__ ((section(".psocinit")))
  37:Generated_Source\PSoC5/cyfitter_cfg.c ****     #endif
  38:Generated_Source\PSoC5/cyfitter_cfg.c ****     
  39:Generated_Source\PSoC5/cyfitter_cfg.c ****     #if defined(__ARMCC_VERSION)
  40:Generated_Source\PSoC5/cyfitter_cfg.c ****         #define CY_CFG_MEMORY_BARRIER() __memory_changed()
  41:Generated_Source\PSoC5/cyfitter_cfg.c ****     #else
  42:Generated_Source\PSoC5/cyfitter_cfg.c ****         #define CY_CFG_MEMORY_BARRIER() __sync_synchronize()
  43:Generated_Source\PSoC5/cyfitter_cfg.c ****     #endif
  44:Generated_Source\PSoC5/cyfitter_cfg.c ****     
  45:Generated_Source\PSoC5/cyfitter_cfg.c **** #elif defined(__ICCARM__)
  46:Generated_Source\PSoC5/cyfitter_cfg.c ****     #include <intrinsics.h>
  47:Generated_Source\PSoC5/cyfitter_cfg.c **** 
  48:Generated_Source\PSoC5/cyfitter_cfg.c ****     #define CYPACKED __packed
  49:Generated_Source\PSoC5/cyfitter_cfg.c ****     #define CYPACKED_ATTR 
  50:Generated_Source\PSoC5/cyfitter_cfg.c ****     #define CYALIGNED _Pragma("data_alignment=4")
  51:Generated_Source\PSoC5/cyfitter_cfg.c ****     #define CY_CFG_UNUSED _Pragma("diag_suppress=Pe177")
  52:Generated_Source\PSoC5/cyfitter_cfg.c ****     #define CY_CFG_SECTION _Pragma("location=\".psocinit\"")
  53:Generated_Source\PSoC5/cyfitter_cfg.c ****     
  54:Generated_Source\PSoC5/cyfitter_cfg.c ****     #define CY_CFG_MEMORY_BARRIER() __DMB()
  55:Generated_Source\PSoC5/cyfitter_cfg.c ****     
  56:Generated_Source\PSoC5/cyfitter_cfg.c **** #else
  57:Generated_Source\PSoC5/cyfitter_cfg.c ****     #error Unsupported toolchain
  58:Generated_Source\PSoC5/cyfitter_cfg.c **** #endif
  59:Generated_Source\PSoC5/cyfitter_cfg.c **** 
  60:Generated_Source\PSoC5/cyfitter_cfg.c **** #ifndef CYCODE
  61:Generated_Source\PSoC5/cyfitter_cfg.c ****     #define CYCODE
  62:Generated_Source\PSoC5/cyfitter_cfg.c **** #endif
  63:Generated_Source\PSoC5/cyfitter_cfg.c **** #ifndef CYDATA
  64:Generated_Source\PSoC5/cyfitter_cfg.c ****     #define CYDATA
  65:Generated_Source\PSoC5/cyfitter_cfg.c **** #endif
  66:Generated_Source\PSoC5/cyfitter_cfg.c **** #ifndef CYFAR
  67:Generated_Source\PSoC5/cyfitter_cfg.c ****     #define CYFAR
  68:Generated_Source\PSoC5/cyfitter_cfg.c **** #endif
  69:Generated_Source\PSoC5/cyfitter_cfg.c **** #ifndef CYXDATA
  70:Generated_Source\PSoC5/cyfitter_cfg.c ****     #define CYXDATA
  71:Generated_Source\PSoC5/cyfitter_cfg.c **** #endif
  72:Generated_Source\PSoC5/cyfitter_cfg.c **** 
  73:Generated_Source\PSoC5/cyfitter_cfg.c **** 
  74:Generated_Source\PSoC5/cyfitter_cfg.c **** CY_CFG_UNUSED
  75:Generated_Source\PSoC5/cyfitter_cfg.c **** static void CYMEMZERO(void *s, size_t n);
  76:Generated_Source\PSoC5/cyfitter_cfg.c **** CY_CFG_UNUSED
  77:Generated_Source\PSoC5/cyfitter_cfg.c **** static void CYMEMZERO(void *s, size_t n)
  78:Generated_Source\PSoC5/cyfitter_cfg.c **** {
  79:Generated_Source\PSoC5/cyfitter_cfg.c **** 	(void)memset(s, 0, n);
  80:Generated_Source\PSoC5/cyfitter_cfg.c **** }
  81:Generated_Source\PSoC5/cyfitter_cfg.c **** CY_CFG_UNUSED
  82:Generated_Source\PSoC5/cyfitter_cfg.c **** static void CYCONFIGCPY(void *dest, const void *src, size_t n);
  83:Generated_Source\PSoC5/cyfitter_cfg.c **** CY_CFG_UNUSED
  84:Generated_Source\PSoC5/cyfitter_cfg.c **** static void CYCONFIGCPY(void *dest, const void *src, size_t n)
  85:Generated_Source\PSoC5/cyfitter_cfg.c **** {
  86:Generated_Source\PSoC5/cyfitter_cfg.c **** 	(void)memcpy(dest, src, n);
  87:Generated_Source\PSoC5/cyfitter_cfg.c **** }
  88:Generated_Source\PSoC5/cyfitter_cfg.c **** CY_CFG_UNUSED
ARM GAS  C:\Users\Rolf\AppData\Local\Temp\ccnUdI9r.s 			page 3


  89:Generated_Source\PSoC5/cyfitter_cfg.c **** static void CYCONFIGCPYCODE(void *dest, const void *src, size_t n);
  90:Generated_Source\PSoC5/cyfitter_cfg.c **** CY_CFG_UNUSED
  91:Generated_Source\PSoC5/cyfitter_cfg.c **** static void CYCONFIGCPYCODE(void *dest, const void *src, size_t n)
  92:Generated_Source\PSoC5/cyfitter_cfg.c **** {
  93:Generated_Source\PSoC5/cyfitter_cfg.c **** 	(void)memcpy(dest, src, n);
  94:Generated_Source\PSoC5/cyfitter_cfg.c **** }
  95:Generated_Source\PSoC5/cyfitter_cfg.c **** 
  96:Generated_Source\PSoC5/cyfitter_cfg.c **** 
  97:Generated_Source\PSoC5/cyfitter_cfg.c **** 
  98:Generated_Source\PSoC5/cyfitter_cfg.c **** 
  99:Generated_Source\PSoC5/cyfitter_cfg.c **** /* Clock startup error codes                                                   */
 100:Generated_Source\PSoC5/cyfitter_cfg.c **** #define CYCLOCKSTART_NO_ERROR    0u
 101:Generated_Source\PSoC5/cyfitter_cfg.c **** #define CYCLOCKSTART_XTAL_ERROR  1u
 102:Generated_Source\PSoC5/cyfitter_cfg.c **** #define CYCLOCKSTART_32KHZ_ERROR 2u
 103:Generated_Source\PSoC5/cyfitter_cfg.c **** #define CYCLOCKSTART_PLL_ERROR   3u
 104:Generated_Source\PSoC5/cyfitter_cfg.c **** #define CYCLOCKSTART_FLL_ERROR   4u
 105:Generated_Source\PSoC5/cyfitter_cfg.c **** #define CYCLOCKSTART_WCO_ERROR   5u
 106:Generated_Source\PSoC5/cyfitter_cfg.c **** 
 107:Generated_Source\PSoC5/cyfitter_cfg.c **** 
 108:Generated_Source\PSoC5/cyfitter_cfg.c **** #ifdef CY_NEED_CYCLOCKSTARTUPERROR
 109:Generated_Source\PSoC5/cyfitter_cfg.c **** /*******************************************************************************
 110:Generated_Source\PSoC5/cyfitter_cfg.c **** * Function Name: CyClockStartupError
 111:Generated_Source\PSoC5/cyfitter_cfg.c **** ********************************************************************************
 112:Generated_Source\PSoC5/cyfitter_cfg.c **** * Summary:
 113:Generated_Source\PSoC5/cyfitter_cfg.c **** *  If an error is encountered during clock configuration (crystal startup error,
 114:Generated_Source\PSoC5/cyfitter_cfg.c **** *  PLL lock error, etc.), the system will end up here.  Unless reimplemented by
 115:Generated_Source\PSoC5/cyfitter_cfg.c **** *  the customer, this function will stop in an infinite loop.
 116:Generated_Source\PSoC5/cyfitter_cfg.c **** *
 117:Generated_Source\PSoC5/cyfitter_cfg.c **** * Parameters:
 118:Generated_Source\PSoC5/cyfitter_cfg.c **** *   void
 119:Generated_Source\PSoC5/cyfitter_cfg.c **** *
 120:Generated_Source\PSoC5/cyfitter_cfg.c **** * Return:
 121:Generated_Source\PSoC5/cyfitter_cfg.c **** *   void
 122:Generated_Source\PSoC5/cyfitter_cfg.c **** *
 123:Generated_Source\PSoC5/cyfitter_cfg.c **** *******************************************************************************/
 124:Generated_Source\PSoC5/cyfitter_cfg.c **** CY_CFG_UNUSED
 125:Generated_Source\PSoC5/cyfitter_cfg.c **** static void CyClockStartupError(uint8 errorCode);
 126:Generated_Source\PSoC5/cyfitter_cfg.c **** CY_CFG_UNUSED
 127:Generated_Source\PSoC5/cyfitter_cfg.c **** static void CyClockStartupError(uint8 errorCode)
 128:Generated_Source\PSoC5/cyfitter_cfg.c **** {
  27              		.loc 1 128 0
  28              		.cfi_startproc
  29              		@ Volatile: function does not return.
  30              		@ args = 0, pretend = 0, frame = 0
  31              		@ frame_needed = 0, uses_anonymous_args = 0
  32              		@ link register save eliminated.
  33              	.LVL0:
  34              	.L2:
  35 0000 FEE7     		b	.L2
  36              		.cfi_endproc
  37              	.LFE3:
  38              		.size	CyClockStartupError, .-CyClockStartupError
  39 0002 00BF     		.section	.text.cfg_write_bytes32,"ax",%progbits
  40              		.align	2
  41              		.thumb
  42              		.thumb_func
  43              		.type	cfg_write_bytes32, %function
ARM GAS  C:\Users\Rolf\AppData\Local\Temp\ccnUdI9r.s 			page 4


  44              	cfg_write_bytes32:
  45              	.LFB4:
 129:Generated_Source\PSoC5/cyfitter_cfg.c ****     /* To remove the compiler warning if errorCode not used.                */
 130:Generated_Source\PSoC5/cyfitter_cfg.c ****     errorCode = errorCode;
 131:Generated_Source\PSoC5/cyfitter_cfg.c **** 
 132:Generated_Source\PSoC5/cyfitter_cfg.c ****     /* If we have a clock startup error (bad MHz crystal, PLL lock, etc.),  */
 133:Generated_Source\PSoC5/cyfitter_cfg.c ****     /* we will end up here to allow the customer to implement something to  */
 134:Generated_Source\PSoC5/cyfitter_cfg.c ****     /* deal with the clock condition.                                       */
 135:Generated_Source\PSoC5/cyfitter_cfg.c **** 
 136:Generated_Source\PSoC5/cyfitter_cfg.c **** #ifdef CY_CFG_CLOCK_STARTUP_ERROR_CALLBACK
 137:Generated_Source\PSoC5/cyfitter_cfg.c ****     CY_CFG_Clock_Startup_ErrorCallback();
 138:Generated_Source\PSoC5/cyfitter_cfg.c **** #else
 139:Generated_Source\PSoC5/cyfitter_cfg.c ****     /*  If not using CY_CFG_CLOCK_STARTUP_ERROR_CALLBACK, place your clock startup code here. */
 140:Generated_Source\PSoC5/cyfitter_cfg.c ****     /* `#START CyClockStartupError` */
 141:Generated_Source\PSoC5/cyfitter_cfg.c **** 
 142:Generated_Source\PSoC5/cyfitter_cfg.c **** 
 143:Generated_Source\PSoC5/cyfitter_cfg.c **** 
 144:Generated_Source\PSoC5/cyfitter_cfg.c ****     /* `#END` */
 145:Generated_Source\PSoC5/cyfitter_cfg.c **** 
 146:Generated_Source\PSoC5/cyfitter_cfg.c ****     while(1) {}
 147:Generated_Source\PSoC5/cyfitter_cfg.c **** #endif /* CY_CFG_CLOCK_STARTUP_ERROR_CALLBACK */
 148:Generated_Source\PSoC5/cyfitter_cfg.c **** }
 149:Generated_Source\PSoC5/cyfitter_cfg.c **** #endif
 150:Generated_Source\PSoC5/cyfitter_cfg.c **** 
 151:Generated_Source\PSoC5/cyfitter_cfg.c **** #define CY_CFG_BASE_ADDR_COUNT 8u
 152:Generated_Source\PSoC5/cyfitter_cfg.c **** CYPACKED typedef struct
 153:Generated_Source\PSoC5/cyfitter_cfg.c **** {
 154:Generated_Source\PSoC5/cyfitter_cfg.c **** 	uint8 offset;
 155:Generated_Source\PSoC5/cyfitter_cfg.c **** 	uint8 value;
 156:Generated_Source\PSoC5/cyfitter_cfg.c **** } CYPACKED_ATTR cy_cfg_addrvalue_t;
 157:Generated_Source\PSoC5/cyfitter_cfg.c **** 
 158:Generated_Source\PSoC5/cyfitter_cfg.c **** 
 159:Generated_Source\PSoC5/cyfitter_cfg.c **** 
 160:Generated_Source\PSoC5/cyfitter_cfg.c **** /*******************************************************************************
 161:Generated_Source\PSoC5/cyfitter_cfg.c **** * Function Name: cfg_write_bytes32
 162:Generated_Source\PSoC5/cyfitter_cfg.c **** ********************************************************************************
 163:Generated_Source\PSoC5/cyfitter_cfg.c **** * Summary:
 164:Generated_Source\PSoC5/cyfitter_cfg.c **** *  This function is used for setting up the chip configuration areas that
 165:Generated_Source\PSoC5/cyfitter_cfg.c **** *  contain relatively sparse data.
 166:Generated_Source\PSoC5/cyfitter_cfg.c **** *
 167:Generated_Source\PSoC5/cyfitter_cfg.c **** * Parameters:
 168:Generated_Source\PSoC5/cyfitter_cfg.c **** *   void
 169:Generated_Source\PSoC5/cyfitter_cfg.c **** *
 170:Generated_Source\PSoC5/cyfitter_cfg.c **** * Return:
 171:Generated_Source\PSoC5/cyfitter_cfg.c **** *   void
 172:Generated_Source\PSoC5/cyfitter_cfg.c **** *
 173:Generated_Source\PSoC5/cyfitter_cfg.c **** *******************************************************************************/
 174:Generated_Source\PSoC5/cyfitter_cfg.c **** static void cfg_write_bytes32(const uint32 addr_table[], const cy_cfg_addrvalue_t data_table[]);
 175:Generated_Source\PSoC5/cyfitter_cfg.c **** static void cfg_write_bytes32(const uint32 addr_table[], const cy_cfg_addrvalue_t data_table[])
 176:Generated_Source\PSoC5/cyfitter_cfg.c **** {
  46              		.loc 1 176 0
  47              		.cfi_startproc
  48              		@ args = 0, pretend = 0, frame = 0
  49              		@ frame_needed = 0, uses_anonymous_args = 0
  50              		@ link register save eliminated.
  51              	.LVL1:
  52              		.loc 1 176 0
ARM GAS  C:\Users\Rolf\AppData\Local\Temp\ccnUdI9r.s 			page 5


  53 0000 F0B4     		push	{r4, r5, r6, r7}
  54              		.cfi_def_cfa_offset 16
  55              		.cfi_offset 4, -16
  56              		.cfi_offset 5, -12
  57              		.cfi_offset 6, -8
  58              		.cfi_offset 7, -4
  59              	.LVL2:
 177:Generated_Source\PSoC5/cyfitter_cfg.c **** 	/* For 32-bit little-endian architectures */
 178:Generated_Source\PSoC5/cyfitter_cfg.c **** 	uint32 i, j = 0u;
  60              		.loc 1 178 0
  61 0002 0022     		movs	r2, #0
 179:Generated_Source\PSoC5/cyfitter_cfg.c **** 	for (i = 0u; i < CY_CFG_BASE_ADDR_COUNT; i++)
  62              		.loc 1 179 0
  63 0004 1746     		mov	r7, r2
  64 0006 11E0     		b	.L4
  65              	.LVL3:
  66              	.L7:
  67              	.LBB2:
 180:Generated_Source\PSoC5/cyfitter_cfg.c **** 	{
 181:Generated_Source\PSoC5/cyfitter_cfg.c **** 		uint32 baseAddr = addr_table[i];
  68              		.loc 1 181 0
  69 0008 50F82760 		ldr	r6, [r0, r7, lsl #2]
  70              	.LVL4:
 182:Generated_Source\PSoC5/cyfitter_cfg.c **** 		uint8 count = (uint8)baseAddr;
  71              		.loc 1 182 0
  72 000c F3B2     		uxtb	r3, r6
  73              	.LVL5:
 183:Generated_Source\PSoC5/cyfitter_cfg.c **** 		baseAddr &= 0xFFFFFF00u;
  74              		.loc 1 183 0
  75 000e 26F0FF06 		bic	r6, r6, #255
  76              	.LVL6:
 184:Generated_Source\PSoC5/cyfitter_cfg.c **** 		while (count != 0u)
  77              		.loc 1 184 0
  78 0012 08E0     		b	.L5
  79              	.L6:
 185:Generated_Source\PSoC5/cyfitter_cfg.c **** 		{
 186:Generated_Source\PSoC5/cyfitter_cfg.c **** 			CY_SET_REG8((void *)(baseAddr + data_table[j].offset), data_table[j].value);
  80              		.loc 1 186 0
  81 0014 01EB4205 		add	r5, r1, r2, lsl #1
  82 0018 11F81240 		ldrb	r4, [r1, r2, lsl #1]	@ zero_extendqisi2
  83 001c 6D78     		ldrb	r5, [r5, #1]	@ zero_extendqisi2
  84 001e A555     		strb	r5, [r4, r6]
 187:Generated_Source\PSoC5/cyfitter_cfg.c **** 			j++;
  85              		.loc 1 187 0
  86 0020 0132     		adds	r2, r2, #1
  87              	.LVL7:
 188:Generated_Source\PSoC5/cyfitter_cfg.c **** 			count--;
  88              		.loc 1 188 0
  89 0022 013B     		subs	r3, r3, #1
  90              	.LVL8:
  91 0024 DBB2     		uxtb	r3, r3
  92              	.LVL9:
  93              	.L5:
 184:Generated_Source\PSoC5/cyfitter_cfg.c **** 		{
  94              		.loc 1 184 0
  95 0026 002B     		cmp	r3, #0
  96 0028 F4D1     		bne	.L6
ARM GAS  C:\Users\Rolf\AppData\Local\Temp\ccnUdI9r.s 			page 6


  97              	.LBE2:
 179:Generated_Source\PSoC5/cyfitter_cfg.c **** 	{
  98              		.loc 1 179 0 discriminator 2
  99 002a 0137     		adds	r7, r7, #1
 100              	.LVL10:
 101              	.L4:
 179:Generated_Source\PSoC5/cyfitter_cfg.c **** 	{
 102              		.loc 1 179 0 is_stmt 0 discriminator 1
 103 002c 072F     		cmp	r7, #7
 104 002e EBD9     		bls	.L7
 189:Generated_Source\PSoC5/cyfitter_cfg.c **** 		}
 190:Generated_Source\PSoC5/cyfitter_cfg.c **** 	}
 191:Generated_Source\PSoC5/cyfitter_cfg.c **** }
 105              		.loc 1 191 0 is_stmt 1
 106 0030 F0BC     		pop	{r4, r5, r6, r7}
 107              		.cfi_restore 7
 108              		.cfi_restore 6
 109              		.cfi_restore 5
 110              		.cfi_restore 4
 111              		.cfi_def_cfa_offset 0
 112              	.LVL11:
 113 0032 7047     		bx	lr
 114              		.cfi_endproc
 115              	.LFE4:
 116              		.size	cfg_write_bytes32, .-cfg_write_bytes32
 117              		.section	.text.AnalogSetDefault,"ax",%progbits
 118              		.align	2
 119              		.thumb
 120              		.thumb_func
 121              		.type	AnalogSetDefault, %function
 122              	AnalogSetDefault:
 123              	.LFB6:
 192:Generated_Source\PSoC5/cyfitter_cfg.c **** 
 193:Generated_Source\PSoC5/cyfitter_cfg.c **** /*******************************************************************************
 194:Generated_Source\PSoC5/cyfitter_cfg.c **** * Function Name: ClockSetup
 195:Generated_Source\PSoC5/cyfitter_cfg.c **** ********************************************************************************
 196:Generated_Source\PSoC5/cyfitter_cfg.c **** *
 197:Generated_Source\PSoC5/cyfitter_cfg.c **** * Summary:
 198:Generated_Source\PSoC5/cyfitter_cfg.c **** *  Performs the initialization of all of the clocks in the device based on the
 199:Generated_Source\PSoC5/cyfitter_cfg.c **** *  settings in the Clock tab of the DWR.  This includes enabling the requested
 200:Generated_Source\PSoC5/cyfitter_cfg.c **** *  clocks and setting the necessary dividers to produce the desired frequency. 
 201:Generated_Source\PSoC5/cyfitter_cfg.c **** *
 202:Generated_Source\PSoC5/cyfitter_cfg.c **** * Parameters:
 203:Generated_Source\PSoC5/cyfitter_cfg.c **** *  void
 204:Generated_Source\PSoC5/cyfitter_cfg.c **** *
 205:Generated_Source\PSoC5/cyfitter_cfg.c **** * Return:
 206:Generated_Source\PSoC5/cyfitter_cfg.c **** *  void
 207:Generated_Source\PSoC5/cyfitter_cfg.c **** *
 208:Generated_Source\PSoC5/cyfitter_cfg.c **** *******************************************************************************/
 209:Generated_Source\PSoC5/cyfitter_cfg.c **** static void ClockSetup(void);
 210:Generated_Source\PSoC5/cyfitter_cfg.c **** static void ClockSetup(void)
 211:Generated_Source\PSoC5/cyfitter_cfg.c **** {
 212:Generated_Source\PSoC5/cyfitter_cfg.c **** 	uint32 timeout;
 213:Generated_Source\PSoC5/cyfitter_cfg.c **** 	uint8 pllLock;
 214:Generated_Source\PSoC5/cyfitter_cfg.c **** 
 215:Generated_Source\PSoC5/cyfitter_cfg.c **** 
 216:Generated_Source\PSoC5/cyfitter_cfg.c **** 	/* Configure Digital Clocks based on settings from Clock DWR */
ARM GAS  C:\Users\Rolf\AppData\Local\Temp\ccnUdI9r.s 			page 7


 217:Generated_Source\PSoC5/cyfitter_cfg.c **** 	CY_SET_XTND_REG16((void CYFAR *)(CYREG_CLKDIST_DCFG0_CFG0), 0x5DBFu);
 218:Generated_Source\PSoC5/cyfitter_cfg.c **** 	CY_SET_XTND_REG8((void CYFAR *)(CYREG_CLKDIST_DCFG0_CFG0 + 0x2u), 0x18u);
 219:Generated_Source\PSoC5/cyfitter_cfg.c **** 
 220:Generated_Source\PSoC5/cyfitter_cfg.c **** 	/* Configure ILO based on settings from Clock DWR */
 221:Generated_Source\PSoC5/cyfitter_cfg.c **** 	CY_SET_XTND_REG8((void CYFAR *)(CYREG_SLOWCLK_ILO_CR0), 0x02u);
 222:Generated_Source\PSoC5/cyfitter_cfg.c **** 	CY_SET_XTND_REG8((void CYFAR *)(CYREG_CLKDIST_CR), 0x08u);
 223:Generated_Source\PSoC5/cyfitter_cfg.c **** 
 224:Generated_Source\PSoC5/cyfitter_cfg.c **** 	/* Configure IMO based on settings from Clock DWR */
 225:Generated_Source\PSoC5/cyfitter_cfg.c **** 	CY_SET_XTND_REG8((void CYFAR *)(CYREG_FASTCLK_IMO_CR), 0x03u);
 226:Generated_Source\PSoC5/cyfitter_cfg.c **** 	CY_SET_XTND_REG8((void CYFAR *)(CYREG_IMO_TR1), (CY_GET_XTND_REG8((void CYFAR *)CYREG_FLSHID_CUST_
 227:Generated_Source\PSoC5/cyfitter_cfg.c **** 
 228:Generated_Source\PSoC5/cyfitter_cfg.c **** 	/* Configure PLL based on settings from Clock DWR */
 229:Generated_Source\PSoC5/cyfitter_cfg.c **** 	CY_SET_XTND_REG16((void CYFAR *)(CYREG_FASTCLK_PLL_P), 0x0008u);
 230:Generated_Source\PSoC5/cyfitter_cfg.c **** 	CY_SET_XTND_REG16((void CYFAR *)(CYREG_FASTCLK_PLL_CFG0), 0x1251u);
 231:Generated_Source\PSoC5/cyfitter_cfg.c **** 	/* Wait up to 250us for the PLL to lock */
 232:Generated_Source\PSoC5/cyfitter_cfg.c **** 	pllLock = 0u;
 233:Generated_Source\PSoC5/cyfitter_cfg.c **** 	for (timeout = 250u / 10u; (timeout > 0u) && (pllLock != 0x03u); timeout--)
 234:Generated_Source\PSoC5/cyfitter_cfg.c **** 	{ 
 235:Generated_Source\PSoC5/cyfitter_cfg.c **** 		pllLock = 0x03u & ((uint8)((uint8)pllLock << 1) | ((CY_GET_XTND_REG8((void CYFAR *)CYREG_FASTCLK_
 236:Generated_Source\PSoC5/cyfitter_cfg.c **** 		CyDelayCycles(10u * 48u); /* Delay 10us based on 48MHz clock */
 237:Generated_Source\PSoC5/cyfitter_cfg.c **** 	}
 238:Generated_Source\PSoC5/cyfitter_cfg.c **** 	/* If we ran out of time the PLL didn't lock so go to the error function */
 239:Generated_Source\PSoC5/cyfitter_cfg.c **** 	if (timeout == 0u)
 240:Generated_Source\PSoC5/cyfitter_cfg.c **** 	{
 241:Generated_Source\PSoC5/cyfitter_cfg.c **** 		CyClockStartupError(CYCLOCKSTART_PLL_ERROR);
 242:Generated_Source\PSoC5/cyfitter_cfg.c **** 	}
 243:Generated_Source\PSoC5/cyfitter_cfg.c **** 
 244:Generated_Source\PSoC5/cyfitter_cfg.c **** 	/* Configure Bus/Master Clock based on settings from Clock DWR */
 245:Generated_Source\PSoC5/cyfitter_cfg.c **** 	CY_SET_XTND_REG16((void CYFAR *)(CYREG_CLKDIST_MSTR0), 0x0100u);
 246:Generated_Source\PSoC5/cyfitter_cfg.c **** 	CY_SET_XTND_REG8((void CYFAR *)(CYREG_CLKDIST_MSTR0), 0x07u);
 247:Generated_Source\PSoC5/cyfitter_cfg.c **** 	CY_SET_XTND_REG8((void CYFAR *)(CYREG_CLKDIST_BCFG0), 0x00u);
 248:Generated_Source\PSoC5/cyfitter_cfg.c **** 	CY_SET_XTND_REG8((void CYFAR *)(CYREG_CLKDIST_BCFG2), 0x48u);
 249:Generated_Source\PSoC5/cyfitter_cfg.c **** 	CY_SET_XTND_REG8((void CYFAR *)(CYREG_CLKDIST_MSTR0), 0x00u);
 250:Generated_Source\PSoC5/cyfitter_cfg.c **** 	CY_SET_XTND_REG8((void CYFAR *)(CYREG_CLKDIST_LD), 0x02u);
 251:Generated_Source\PSoC5/cyfitter_cfg.c **** 
 252:Generated_Source\PSoC5/cyfitter_cfg.c **** 	CY_SET_XTND_REG8((void CYFAR *)(CYREG_PM_ACT_CFG2), ((CY_GET_XTND_REG8((void CYFAR *)CYREG_PM_ACT_
 253:Generated_Source\PSoC5/cyfitter_cfg.c **** }
 254:Generated_Source\PSoC5/cyfitter_cfg.c **** 
 255:Generated_Source\PSoC5/cyfitter_cfg.c **** 
 256:Generated_Source\PSoC5/cyfitter_cfg.c **** /* Analog API Functions */
 257:Generated_Source\PSoC5/cyfitter_cfg.c **** 
 258:Generated_Source\PSoC5/cyfitter_cfg.c **** 
 259:Generated_Source\PSoC5/cyfitter_cfg.c **** /*******************************************************************************
 260:Generated_Source\PSoC5/cyfitter_cfg.c **** * Function Name: AnalogSetDefault
 261:Generated_Source\PSoC5/cyfitter_cfg.c **** ********************************************************************************
 262:Generated_Source\PSoC5/cyfitter_cfg.c **** *
 263:Generated_Source\PSoC5/cyfitter_cfg.c **** * Summary:
 264:Generated_Source\PSoC5/cyfitter_cfg.c **** *  Sets up the analog portions of the chip to default values based on chip
 265:Generated_Source\PSoC5/cyfitter_cfg.c **** *  configuration options from the project.
 266:Generated_Source\PSoC5/cyfitter_cfg.c **** *
 267:Generated_Source\PSoC5/cyfitter_cfg.c **** * Parameters:
 268:Generated_Source\PSoC5/cyfitter_cfg.c **** *  void
 269:Generated_Source\PSoC5/cyfitter_cfg.c **** *
 270:Generated_Source\PSoC5/cyfitter_cfg.c **** * Return:
 271:Generated_Source\PSoC5/cyfitter_cfg.c **** *  void
 272:Generated_Source\PSoC5/cyfitter_cfg.c **** *
 273:Generated_Source\PSoC5/cyfitter_cfg.c **** *******************************************************************************/
ARM GAS  C:\Users\Rolf\AppData\Local\Temp\ccnUdI9r.s 			page 8


 274:Generated_Source\PSoC5/cyfitter_cfg.c **** static void AnalogSetDefault(void);
 275:Generated_Source\PSoC5/cyfitter_cfg.c **** static void AnalogSetDefault(void)
 276:Generated_Source\PSoC5/cyfitter_cfg.c **** {
 124              		.loc 1 276 0
 125              		.cfi_startproc
 126              		@ args = 0, pretend = 0, frame = 0
 127              		@ frame_needed = 0, uses_anonymous_args = 0
 128              		@ link register save eliminated.
 277:Generated_Source\PSoC5/cyfitter_cfg.c **** 	uint8 bg_xover_inl_trim = CY_GET_XTND_REG8((void CYFAR *)(CYREG_FLSHID_MFG_CFG_BG_XOVER_INL_TRIM +
 129              		.loc 1 277 0
 130 0000 064B     		ldr	r3, .L10
 131 0002 1B78     		ldrb	r3, [r3]	@ zero_extendqisi2
 132 0004 DBB2     		uxtb	r3, r3
 133              	.LVL12:
 278:Generated_Source\PSoC5/cyfitter_cfg.c **** 	CY_SET_XTND_REG8((void CYFAR *)(CYREG_BG_DFT0), (bg_xover_inl_trim & 0x07u));
 134              		.loc 1 278 0
 135 0006 03F00701 		and	r1, r3, #7
 136 000a 054A     		ldr	r2, .L10+4
 137 000c 1170     		strb	r1, [r2]
 279:Generated_Source\PSoC5/cyfitter_cfg.c **** 	CY_SET_XTND_REG8((void CYFAR *)(CYREG_BG_DFT1), ((bg_xover_inl_trim >> 4) & 0x0Fu));
 138              		.loc 1 279 0
 139 000e 1B09     		lsrs	r3, r3, #4
 140              	.LVL13:
 141 0010 0132     		adds	r2, r2, #1
 142 0012 1370     		strb	r3, [r2]
 280:Generated_Source\PSoC5/cyfitter_cfg.c **** 	CY_SET_XTND_REG8((void CYFAR *)CYREG_PUMP_CR0, 0x44u);
 143              		.loc 1 280 0
 144 0014 4422     		movs	r2, #68
 145 0016 034B     		ldr	r3, .L10+8
 146 0018 1A70     		strb	r2, [r3]
 147 001a 7047     		bx	lr
 148              	.L11:
 149              		.align	2
 150              	.L10:
 151 001c CF010049 		.word	1224737231
 152 0020 6E580040 		.word	1073764462
 153 0024 76580040 		.word	1073764470
 154              		.cfi_endproc
 155              	.LFE6:
 156              		.size	AnalogSetDefault, .-AnalogSetDefault
 157              		.section	.text.CYMEMZERO,"ax",%progbits
 158              		.align	2
 159              		.thumb
 160              		.thumb_func
 161              		.type	CYMEMZERO, %function
 162              	CYMEMZERO:
 163              	.LFB0:
  78:Generated_Source\PSoC5/cyfitter_cfg.c **** 	(void)memset(s, 0, n);
 164              		.loc 1 78 0
 165              		.cfi_startproc
 166              		@ args = 0, pretend = 0, frame = 0
 167              		@ frame_needed = 0, uses_anonymous_args = 0
 168              	.LVL14:
 169 0000 08B5     		push	{r3, lr}
 170              		.cfi_def_cfa_offset 8
 171              		.cfi_offset 3, -8
 172              		.cfi_offset 14, -4
ARM GAS  C:\Users\Rolf\AppData\Local\Temp\ccnUdI9r.s 			page 9


  79:Generated_Source\PSoC5/cyfitter_cfg.c **** }
 173              		.loc 1 79 0
 174 0002 0A46     		mov	r2, r1
 175 0004 0021     		movs	r1, #0
 176              	.LVL15:
 177 0006 FFF7FEFF 		bl	memset
 178              	.LVL16:
 179 000a 08BD     		pop	{r3, pc}
 180              		.cfi_endproc
 181              	.LFE0:
 182              		.size	CYMEMZERO, .-CYMEMZERO
 183              		.section	.text.CYCONFIGCPYCODE,"ax",%progbits
 184              		.align	2
 185              		.thumb
 186              		.thumb_func
 187              		.type	CYCONFIGCPYCODE, %function
 188              	CYCONFIGCPYCODE:
 189              	.LFB2:
  92:Generated_Source\PSoC5/cyfitter_cfg.c **** 	(void)memcpy(dest, src, n);
 190              		.loc 1 92 0
 191              		.cfi_startproc
 192              		@ args = 0, pretend = 0, frame = 0
 193              		@ frame_needed = 0, uses_anonymous_args = 0
 194              	.LVL17:
 195 0000 08B5     		push	{r3, lr}
 196              		.cfi_def_cfa_offset 8
 197              		.cfi_offset 3, -8
 198              		.cfi_offset 14, -4
  93:Generated_Source\PSoC5/cyfitter_cfg.c **** }
 199              		.loc 1 93 0
 200 0002 FFF7FEFF 		bl	memcpy
 201              	.LVL18:
 202 0006 08BD     		pop	{r3, pc}
 203              		.cfi_endproc
 204              	.LFE2:
 205              		.size	CYCONFIGCPYCODE, .-CYCONFIGCPYCODE
 206              		.section	.text.CYCONFIGCPY,"ax",%progbits
 207              		.align	2
 208              		.thumb
 209              		.thumb_func
 210              		.type	CYCONFIGCPY, %function
 211              	CYCONFIGCPY:
 212              	.LFB1:
  85:Generated_Source\PSoC5/cyfitter_cfg.c **** 	(void)memcpy(dest, src, n);
 213              		.loc 1 85 0
 214              		.cfi_startproc
 215              		@ args = 0, pretend = 0, frame = 0
 216              		@ frame_needed = 0, uses_anonymous_args = 0
 217              	.LVL19:
 218 0000 08B5     		push	{r3, lr}
 219              		.cfi_def_cfa_offset 8
 220              		.cfi_offset 3, -8
 221              		.cfi_offset 14, -4
  86:Generated_Source\PSoC5/cyfitter_cfg.c **** }
 222              		.loc 1 86 0
 223 0002 FFF7FEFF 		bl	memcpy
 224              	.LVL20:
ARM GAS  C:\Users\Rolf\AppData\Local\Temp\ccnUdI9r.s 			page 10


 225 0006 08BD     		pop	{r3, pc}
 226              		.cfi_endproc
 227              	.LFE1:
 228              		.size	CYCONFIGCPY, .-CYCONFIGCPY
 229              		.section	.text.ClockSetup,"ax",%progbits
 230              		.align	2
 231              		.thumb
 232              		.thumb_func
 233              		.type	ClockSetup, %function
 234              	ClockSetup:
 235              	.LFB5:
 211:Generated_Source\PSoC5/cyfitter_cfg.c **** 	uint32 timeout;
 236              		.loc 1 211 0
 237              		.cfi_startproc
 238              		@ args = 0, pretend = 0, frame = 0
 239              		@ frame_needed = 0, uses_anonymous_args = 0
 240 0000 38B5     		push	{r3, r4, r5, lr}
 241              		.cfi_def_cfa_offset 16
 242              		.cfi_offset 3, -16
 243              		.cfi_offset 4, -12
 244              		.cfi_offset 5, -8
 245              		.cfi_offset 14, -4
 217:Generated_Source\PSoC5/cyfitter_cfg.c **** 	CY_SET_XTND_REG8((void CYFAR *)(CYREG_CLKDIST_DCFG0_CFG0 + 0x2u), 0x18u);
 246              		.loc 1 217 0
 247 0002 45F6BF52 		movw	r2, #23999
 248 0006 244B     		ldr	r3, .L24
 249 0008 1A80     		strh	r2, [r3]	@ movhi
 218:Generated_Source\PSoC5/cyfitter_cfg.c **** 
 250              		.loc 1 218 0
 251 000a 1822     		movs	r2, #24
 252 000c 0233     		adds	r3, r3, #2
 253 000e 1A70     		strb	r2, [r3]
 221:Generated_Source\PSoC5/cyfitter_cfg.c **** 	CY_SET_XTND_REG8((void CYFAR *)(CYREG_CLKDIST_CR), 0x08u);
 254              		.loc 1 221 0
 255 0010 0222     		movs	r2, #2
 256 0012 03F27E23 		addw	r3, r3, #638
 257 0016 1A70     		strb	r2, [r3]
 222:Generated_Source\PSoC5/cyfitter_cfg.c **** 
 258              		.loc 1 222 0
 259 0018 0822     		movs	r2, #8
 260 001a 4FF04023 		mov	r3, #1073758208
 261 001e 1A70     		strb	r2, [r3]
 225:Generated_Source\PSoC5/cyfitter_cfg.c **** 	CY_SET_XTND_REG8((void CYFAR *)(CYREG_IMO_TR1), (CY_GET_XTND_REG8((void CYFAR *)CYREG_FLSHID_CUST_
 262              		.loc 1 225 0
 263 0020 0321     		movs	r1, #3
 264 0022 03F50073 		add	r3, r3, #512
 265 0026 1970     		strb	r1, [r3]
 226:Generated_Source\PSoC5/cyfitter_cfg.c **** 
 266              		.loc 1 226 0
 267 0028 1C4B     		ldr	r3, .L24+4
 268 002a 1B78     		ldrb	r3, [r3]	@ zero_extendqisi2
 269 002c DBB2     		uxtb	r3, r3
 270 002e 1C49     		ldr	r1, .L24+8
 271 0030 0B70     		strb	r3, [r1]
 229:Generated_Source\PSoC5/cyfitter_cfg.c **** 	CY_SET_XTND_REG16((void CYFAR *)(CYREG_FASTCLK_PLL_CFG0), 0x1251u);
 272              		.loc 1 229 0
 273 0032 1C4B     		ldr	r3, .L24+12
ARM GAS  C:\Users\Rolf\AppData\Local\Temp\ccnUdI9r.s 			page 11


 274 0034 1A80     		strh	r2, [r3]	@ movhi
 230:Generated_Source\PSoC5/cyfitter_cfg.c **** 	/* Wait up to 250us for the PLL to lock */
 275              		.loc 1 230 0
 276 0036 41F25122 		movw	r2, #4689
 277 003a 023B     		subs	r3, r3, #2
 278 003c 1A80     		strh	r2, [r3]	@ movhi
 279              	.LVL21:
 232:Generated_Source\PSoC5/cyfitter_cfg.c **** 	for (timeout = 250u / 10u; (timeout > 0u) && (pllLock != 0x03u); timeout--)
 280              		.loc 1 232 0
 281 003e 0024     		movs	r4, #0
 233:Generated_Source\PSoC5/cyfitter_cfg.c **** 	{ 
 282              		.loc 1 233 0
 283 0040 1925     		movs	r5, #25
 284 0042 0CE0     		b	.L19
 285              	.LVL22:
 286              	.L21:
 235:Generated_Source\PSoC5/cyfitter_cfg.c **** 		CyDelayCycles(10u * 48u); /* Delay 10us based on 48MHz clock */
 287              		.loc 1 235 0 discriminator 4
 288 0044 184B     		ldr	r3, .L24+16
 289 0046 1B78     		ldrb	r3, [r3]	@ zero_extendqisi2
 290 0048 03F00103 		and	r3, r3, #1
 291 004c 43EA4404 		orr	r4, r3, r4, lsl #1
 292              	.LVL23:
 293 0050 04F00304 		and	r4, r4, #3
 294              	.LVL24:
 236:Generated_Source\PSoC5/cyfitter_cfg.c **** 	}
 295              		.loc 1 236 0 discriminator 4
 296 0054 4FF4F070 		mov	r0, #480
 297 0058 FFF7FEFF 		bl	CyDelayCycles
 298              	.LVL25:
 233:Generated_Source\PSoC5/cyfitter_cfg.c **** 	{ 
 299              		.loc 1 233 0 discriminator 4
 300 005c 013D     		subs	r5, r5, #1
 301              	.LVL26:
 302              	.L19:
 233:Generated_Source\PSoC5/cyfitter_cfg.c **** 	{ 
 303              		.loc 1 233 0 is_stmt 0 discriminator 1
 304 005e 0DB1     		cbz	r5, .L20
 233:Generated_Source\PSoC5/cyfitter_cfg.c **** 	{ 
 305              		.loc 1 233 0 discriminator 3
 306 0060 032C     		cmp	r4, #3
 307 0062 EFD1     		bne	.L21
 308              	.L20:
 239:Generated_Source\PSoC5/cyfitter_cfg.c **** 	{
 309              		.loc 1 239 0 is_stmt 1
 310 0064 15B9     		cbnz	r5, .L22
 241:Generated_Source\PSoC5/cyfitter_cfg.c **** 	}
 311              		.loc 1 241 0
 312 0066 0320     		movs	r0, #3
 313 0068 FFF7FEFF 		bl	CyClockStartupError
 314              	.LVL27:
 315              	.L22:
 245:Generated_Source\PSoC5/cyfitter_cfg.c **** 	CY_SET_XTND_REG8((void CYFAR *)(CYREG_CLKDIST_MSTR0), 0x07u);
 316              		.loc 1 245 0
 317 006c 0F4B     		ldr	r3, .L24+20
 318 006e 4FF48072 		mov	r2, #256
 319 0072 1A80     		strh	r2, [r3]	@ movhi
ARM GAS  C:\Users\Rolf\AppData\Local\Temp\ccnUdI9r.s 			page 12


 246:Generated_Source\PSoC5/cyfitter_cfg.c **** 	CY_SET_XTND_REG8((void CYFAR *)(CYREG_CLKDIST_BCFG0), 0x00u);
 320              		.loc 1 246 0
 321 0074 0722     		movs	r2, #7
 322 0076 1A70     		strb	r2, [r3]
 247:Generated_Source\PSoC5/cyfitter_cfg.c **** 	CY_SET_XTND_REG8((void CYFAR *)(CYREG_CLKDIST_BCFG2), 0x48u);
 323              		.loc 1 247 0
 324 0078 0022     		movs	r2, #0
 325 007a 0D49     		ldr	r1, .L24+24
 326 007c 0A70     		strb	r2, [r1]
 248:Generated_Source\PSoC5/cyfitter_cfg.c **** 	CY_SET_XTND_REG8((void CYFAR *)(CYREG_CLKDIST_MSTR0), 0x00u);
 327              		.loc 1 248 0
 328 007e 4820     		movs	r0, #72
 329 0080 0231     		adds	r1, r1, #2
 330 0082 0870     		strb	r0, [r1]
 249:Generated_Source\PSoC5/cyfitter_cfg.c **** 	CY_SET_XTND_REG8((void CYFAR *)(CYREG_CLKDIST_LD), 0x02u);
 331              		.loc 1 249 0
 332 0084 1A70     		strb	r2, [r3]
 250:Generated_Source\PSoC5/cyfitter_cfg.c **** 
 333              		.loc 1 250 0
 334 0086 0222     		movs	r2, #2
 335 0088 033B     		subs	r3, r3, #3
 336 008a 1A70     		strb	r2, [r3]
 252:Generated_Source\PSoC5/cyfitter_cfg.c **** }
 337              		.loc 1 252 0
 338 008c 094A     		ldr	r2, .L24+28
 339 008e 1378     		ldrb	r3, [r2]	@ zero_extendqisi2
 340 0090 43F00103 		orr	r3, r3, #1
 341 0094 1370     		strb	r3, [r2]
 342 0096 38BD     		pop	{r3, r4, r5, pc}
 343              	.LVL28:
 344              	.L25:
 345              		.align	2
 346              	.L24:
 347 0098 80400040 		.word	1073758336
 348 009c 08010049 		.word	1224737032
 349 00a0 A1460040 		.word	1073759905
 350 00a4 22420040 		.word	1073758754
 351 00a8 25420040 		.word	1073758757
 352 00ac 04400040 		.word	1073758212
 353 00b0 06400040 		.word	1073758214
 354 00b4 A2430040 		.word	1073759138
 355              		.cfi_endproc
 356              	.LFE5:
 357              		.size	ClockSetup, .-ClockSetup
 358              		.section	.text.SetAnalogRoutingPumps,"ax",%progbits
 359              		.align	2
 360              		.global	SetAnalogRoutingPumps
 361              		.thumb
 362              		.thumb_func
 363              		.type	SetAnalogRoutingPumps, %function
 364              	SetAnalogRoutingPumps:
 365              	.LFB7:
 281:Generated_Source\PSoC5/cyfitter_cfg.c **** }
 282:Generated_Source\PSoC5/cyfitter_cfg.c **** 
 283:Generated_Source\PSoC5/cyfitter_cfg.c **** 
 284:Generated_Source\PSoC5/cyfitter_cfg.c **** /*******************************************************************************
 285:Generated_Source\PSoC5/cyfitter_cfg.c **** * Function Name: SetAnalogRoutingPumps
ARM GAS  C:\Users\Rolf\AppData\Local\Temp\ccnUdI9r.s 			page 13


 286:Generated_Source\PSoC5/cyfitter_cfg.c **** ********************************************************************************
 287:Generated_Source\PSoC5/cyfitter_cfg.c **** *
 288:Generated_Source\PSoC5/cyfitter_cfg.c **** * Summary:
 289:Generated_Source\PSoC5/cyfitter_cfg.c **** * Enables or disables the analog pumps feeding analog routing switches.
 290:Generated_Source\PSoC5/cyfitter_cfg.c **** * Intended to be called at startup, based on the Vdda system configuration;
 291:Generated_Source\PSoC5/cyfitter_cfg.c **** * may be called during operation when the user informs us that the Vdda voltage
 292:Generated_Source\PSoC5/cyfitter_cfg.c **** * crossed the pump threshold.
 293:Generated_Source\PSoC5/cyfitter_cfg.c **** *
 294:Generated_Source\PSoC5/cyfitter_cfg.c **** * Parameters:
 295:Generated_Source\PSoC5/cyfitter_cfg.c **** *  enabled - 1 to enable the pumps, 0 to disable the pumps
 296:Generated_Source\PSoC5/cyfitter_cfg.c **** *
 297:Generated_Source\PSoC5/cyfitter_cfg.c **** * Return:
 298:Generated_Source\PSoC5/cyfitter_cfg.c **** *  void
 299:Generated_Source\PSoC5/cyfitter_cfg.c **** *
 300:Generated_Source\PSoC5/cyfitter_cfg.c **** *******************************************************************************/
 301:Generated_Source\PSoC5/cyfitter_cfg.c **** void SetAnalogRoutingPumps(uint8 enabled)
 302:Generated_Source\PSoC5/cyfitter_cfg.c **** {
 366              		.loc 1 302 0
 367              		.cfi_startproc
 368              		@ args = 0, pretend = 0, frame = 0
 369              		@ frame_needed = 0, uses_anonymous_args = 0
 370              		@ link register save eliminated.
 371              	.LVL29:
 303:Generated_Source\PSoC5/cyfitter_cfg.c **** 	uint8 regValue = CY_GET_XTND_REG8((void CYFAR *)CYREG_PUMP_CR0);
 372              		.loc 1 303 0
 373 0000 024A     		ldr	r2, .L27
 374 0002 1378     		ldrb	r3, [r2]	@ zero_extendqisi2
 375 0004 DBB2     		uxtb	r3, r3
 376              	.LVL30:
 304:Generated_Source\PSoC5/cyfitter_cfg.c **** 	if (enabled != 0u)
 305:Generated_Source\PSoC5/cyfitter_cfg.c **** 	{
 306:Generated_Source\PSoC5/cyfitter_cfg.c **** 		regValue |= 0x00u;
 307:Generated_Source\PSoC5/cyfitter_cfg.c **** 	}
 308:Generated_Source\PSoC5/cyfitter_cfg.c **** 	else
 309:Generated_Source\PSoC5/cyfitter_cfg.c **** 	{
 310:Generated_Source\PSoC5/cyfitter_cfg.c **** 		regValue &= (uint8)~0x00u;
 311:Generated_Source\PSoC5/cyfitter_cfg.c **** 	}
 312:Generated_Source\PSoC5/cyfitter_cfg.c **** 	CY_SET_XTND_REG8((void CYFAR *)CYREG_PUMP_CR0, regValue);
 377              		.loc 1 312 0
 378 0006 1370     		strb	r3, [r2]
 379 0008 7047     		bx	lr
 380              	.L28:
 381 000a 00BF     		.align	2
 382              	.L27:
 383 000c 76580040 		.word	1073764470
 384              		.cfi_endproc
 385              	.LFE7:
 386              		.size	SetAnalogRoutingPumps, .-SetAnalogRoutingPumps
 387              		.section	.text.cyfitter_cfg,"ax",%progbits
 388              		.align	2
 389              		.global	cyfitter_cfg
 390              		.thumb
 391              		.thumb_func
 392              		.type	cyfitter_cfg, %function
 393              	cyfitter_cfg:
 394              	.LFB8:
 313:Generated_Source\PSoC5/cyfitter_cfg.c **** }
ARM GAS  C:\Users\Rolf\AppData\Local\Temp\ccnUdI9r.s 			page 14


 314:Generated_Source\PSoC5/cyfitter_cfg.c **** 
 315:Generated_Source\PSoC5/cyfitter_cfg.c **** 
 316:Generated_Source\PSoC5/cyfitter_cfg.c **** 
 317:Generated_Source\PSoC5/cyfitter_cfg.c **** 
 318:Generated_Source\PSoC5/cyfitter_cfg.c **** /*******************************************************************************
 319:Generated_Source\PSoC5/cyfitter_cfg.c **** * Function Name: cyfitter_cfg
 320:Generated_Source\PSoC5/cyfitter_cfg.c **** ********************************************************************************
 321:Generated_Source\PSoC5/cyfitter_cfg.c **** * Summary:
 322:Generated_Source\PSoC5/cyfitter_cfg.c **** *  This function is called by the start-up code for the selected device. It
 323:Generated_Source\PSoC5/cyfitter_cfg.c **** *  performs all of the necessary device configuration based on the design
 324:Generated_Source\PSoC5/cyfitter_cfg.c **** *  settings.  This includes settings from the Design Wide Resources (DWR) such
 325:Generated_Source\PSoC5/cyfitter_cfg.c **** *  as Clocks and Pins as well as any component configuration that is necessary.
 326:Generated_Source\PSoC5/cyfitter_cfg.c **** *
 327:Generated_Source\PSoC5/cyfitter_cfg.c **** * Parameters:
 328:Generated_Source\PSoC5/cyfitter_cfg.c **** *   void
 329:Generated_Source\PSoC5/cyfitter_cfg.c **** *
 330:Generated_Source\PSoC5/cyfitter_cfg.c **** * Return:
 331:Generated_Source\PSoC5/cyfitter_cfg.c **** *   void
 332:Generated_Source\PSoC5/cyfitter_cfg.c **** *
 333:Generated_Source\PSoC5/cyfitter_cfg.c **** *******************************************************************************/
 334:Generated_Source\PSoC5/cyfitter_cfg.c **** 
 335:Generated_Source\PSoC5/cyfitter_cfg.c **** void cyfitter_cfg(void)
 336:Generated_Source\PSoC5/cyfitter_cfg.c **** {
 395              		.loc 1 336 0
 396              		.cfi_startproc
 397              		@ args = 0, pretend = 0, frame = 0
 398              		@ frame_needed = 0, uses_anonymous_args = 0
 399 0000 38B5     		push	{r3, r4, r5, lr}
 400              		.cfi_def_cfa_offset 16
 401              		.cfi_offset 3, -16
 402              		.cfi_offset 4, -12
 403              		.cfi_offset 5, -8
 404              		.cfi_offset 14, -4
 337:Generated_Source\PSoC5/cyfitter_cfg.c **** 	/* IOPINS0_1 Address: CYREG_PRT1_DM0 Size (bytes): 8 */
 338:Generated_Source\PSoC5/cyfitter_cfg.c **** 	static const uint8 CYCODE BS_IOPINS0_1_VAL[] = {
 339:Generated_Source\PSoC5/cyfitter_cfg.c **** 		0x00u, 0x0Bu, 0x0Bu, 0x00u, 0x00u, 0x00u, 0x00u, 0x00u};
 340:Generated_Source\PSoC5/cyfitter_cfg.c **** 
 341:Generated_Source\PSoC5/cyfitter_cfg.c **** 	/* IOPINS0_2 Address: CYREG_PRT2_DM0 Size (bytes): 8 */
 342:Generated_Source\PSoC5/cyfitter_cfg.c **** 	static const uint8 CYCODE BS_IOPINS0_2_VAL[] = {
 343:Generated_Source\PSoC5/cyfitter_cfg.c **** 		0x00u, 0xFFu, 0xFFu, 0x00u, 0xFFu, 0x00u, 0x00u, 0x00u};
 344:Generated_Source\PSoC5/cyfitter_cfg.c **** 
 345:Generated_Source\PSoC5/cyfitter_cfg.c **** #ifdef CYGlobalIntDisable
 346:Generated_Source\PSoC5/cyfitter_cfg.c **** 	/* Disable interrupts by default. Let user enable if/when they want. */
 347:Generated_Source\PSoC5/cyfitter_cfg.c **** 	CYGlobalIntDisable
 405              		.loc 1 347 0
 406              		.syntax unified
 407              	@ 347 "Generated_Source\PSoC5\cyfitter_cfg.c" 1
 408 0002 72B6     		CPSID   i
 409              	@ 0 "" 2
 348:Generated_Source\PSoC5/cyfitter_cfg.c **** #endif
 349:Generated_Source\PSoC5/cyfitter_cfg.c **** 
 350:Generated_Source\PSoC5/cyfitter_cfg.c **** 	/* Enable/Disable Debug functionality based on settings from System DWR */
 351:Generated_Source\PSoC5/cyfitter_cfg.c **** 	CY_SET_XTND_REG8((void CYFAR *)CYREG_MLOGIC_DEBUG, (CY_GET_XTND_REG8((void CYFAR *)CYREG_MLOGIC_DE
 410              		.loc 1 351 0
 411              		.thumb
 412              		.syntax unified
 413 0004 2A4A     		ldr	r2, .L33
ARM GAS  C:\Users\Rolf\AppData\Local\Temp\ccnUdI9r.s 			page 15


 414 0006 1378     		ldrb	r3, [r2]	@ zero_extendqisi2
 415 0008 43F00403 		orr	r3, r3, #4
 416 000c 1370     		strb	r3, [r2]
 417              	.LVL31:
 418              	.LBB3:
 352:Generated_Source\PSoC5/cyfitter_cfg.c **** 
 353:Generated_Source\PSoC5/cyfitter_cfg.c **** 	{
 354:Generated_Source\PSoC5/cyfitter_cfg.c **** 		static const uint32 CYCODE cy_cfg_addr_table[] = {
 355:Generated_Source\PSoC5/cyfitter_cfg.c **** 			0x40005202u, /* Base address: 0x40005200 Count: 2 */
 356:Generated_Source\PSoC5/cyfitter_cfg.c **** 			0x40006401u, /* Base address: 0x40006400 Count: 1 */
 357:Generated_Source\PSoC5/cyfitter_cfg.c **** 			0x40010B06u, /* Base address: 0x40010B00 Count: 6 */
 358:Generated_Source\PSoC5/cyfitter_cfg.c **** 			0x40010C48u, /* Base address: 0x40010C00 Count: 72 */
 359:Generated_Source\PSoC5/cyfitter_cfg.c **** 			0x40010D28u, /* Base address: 0x40010D00 Count: 40 */
 360:Generated_Source\PSoC5/cyfitter_cfg.c **** 			0x4001450Du, /* Base address: 0x40014500 Count: 13 */
 361:Generated_Source\PSoC5/cyfitter_cfg.c **** 			0x40014607u, /* Base address: 0x40014600 Count: 7 */
 362:Generated_Source\PSoC5/cyfitter_cfg.c **** 			0x40015002u, /* Base address: 0x40015000 Count: 2 */
 363:Generated_Source\PSoC5/cyfitter_cfg.c **** 		};
 364:Generated_Source\PSoC5/cyfitter_cfg.c **** 
 365:Generated_Source\PSoC5/cyfitter_cfg.c **** 		static const cy_cfg_addrvalue_t CYCODE cy_cfg_data_table[] = {
 366:Generated_Source\PSoC5/cyfitter_cfg.c **** 			{0x10u, 0xA3u},
 367:Generated_Source\PSoC5/cyfitter_cfg.c **** 			{0x11u, 0xC5u},
 368:Generated_Source\PSoC5/cyfitter_cfg.c **** 			{0x8Du, 0x0Du},
 369:Generated_Source\PSoC5/cyfitter_cfg.c **** 			{0xA8u, 0x14u},
 370:Generated_Source\PSoC5/cyfitter_cfg.c **** 			{0xABu, 0x20u},
 371:Generated_Source\PSoC5/cyfitter_cfg.c **** 			{0xAEu, 0x04u},
 372:Generated_Source\PSoC5/cyfitter_cfg.c **** 			{0xB6u, 0xC0u},
 373:Generated_Source\PSoC5/cyfitter_cfg.c **** 			{0xE8u, 0x07u},
 374:Generated_Source\PSoC5/cyfitter_cfg.c **** 			{0xECu, 0x01u},
 375:Generated_Source\PSoC5/cyfitter_cfg.c **** 			{0x11u, 0x01u},
 376:Generated_Source\PSoC5/cyfitter_cfg.c **** 			{0x13u, 0x02u},
 377:Generated_Source\PSoC5/cyfitter_cfg.c **** 			{0x14u, 0x54u},
 378:Generated_Source\PSoC5/cyfitter_cfg.c **** 			{0x16u, 0xA8u},
 379:Generated_Source\PSoC5/cyfitter_cfg.c **** 			{0x18u, 0x4Au},
 380:Generated_Source\PSoC5/cyfitter_cfg.c **** 			{0x1Au, 0xA5u},
 381:Generated_Source\PSoC5/cyfitter_cfg.c **** 			{0x1Cu, 0x25u},
 382:Generated_Source\PSoC5/cyfitter_cfg.c **** 			{0x1Du, 0x1Du},
 383:Generated_Source\PSoC5/cyfitter_cfg.c **** 			{0x1Eu, 0x5Au},
 384:Generated_Source\PSoC5/cyfitter_cfg.c **** 			{0x1Fu, 0x02u},
 385:Generated_Source\PSoC5/cyfitter_cfg.c **** 			{0x25u, 0x16u},
 386:Generated_Source\PSoC5/cyfitter_cfg.c **** 			{0x27u, 0x09u},
 387:Generated_Source\PSoC5/cyfitter_cfg.c **** 			{0x29u, 0x0Eu},
 388:Generated_Source\PSoC5/cyfitter_cfg.c **** 			{0x2Bu, 0x11u},
 389:Generated_Source\PSoC5/cyfitter_cfg.c **** 			{0x2Cu, 0x51u},
 390:Generated_Source\PSoC5/cyfitter_cfg.c **** 			{0x2Eu, 0xA2u},
 391:Generated_Source\PSoC5/cyfitter_cfg.c **** 			{0x30u, 0x80u},
 392:Generated_Source\PSoC5/cyfitter_cfg.c **** 			{0x31u, 0x03u},
 393:Generated_Source\PSoC5/cyfitter_cfg.c **** 			{0x32u, 0x0Fu},
 394:Generated_Source\PSoC5/cyfitter_cfg.c **** 			{0x33u, 0x04u},
 395:Generated_Source\PSoC5/cyfitter_cfg.c **** 			{0x34u, 0x40u},
 396:Generated_Source\PSoC5/cyfitter_cfg.c **** 			{0x35u, 0x08u},
 397:Generated_Source\PSoC5/cyfitter_cfg.c **** 			{0x36u, 0x30u},
 398:Generated_Source\PSoC5/cyfitter_cfg.c **** 			{0x37u, 0x10u},
 399:Generated_Source\PSoC5/cyfitter_cfg.c **** 			{0x3Au, 0xB8u},
 400:Generated_Source\PSoC5/cyfitter_cfg.c **** 			{0x3Bu, 0x02u},
 401:Generated_Source\PSoC5/cyfitter_cfg.c **** 			{0x3Eu, 0x01u},
 402:Generated_Source\PSoC5/cyfitter_cfg.c **** 			{0x3Fu, 0x54u},
 403:Generated_Source\PSoC5/cyfitter_cfg.c **** 			{0x58u, 0x08u},
ARM GAS  C:\Users\Rolf\AppData\Local\Temp\ccnUdI9r.s 			page 16


 404:Generated_Source\PSoC5/cyfitter_cfg.c **** 			{0x59u, 0x08u},
 405:Generated_Source\PSoC5/cyfitter_cfg.c **** 			{0x5Fu, 0x01u},
 406:Generated_Source\PSoC5/cyfitter_cfg.c **** 			{0x83u, 0x01u},
 407:Generated_Source\PSoC5/cyfitter_cfg.c **** 			{0x84u, 0x05u},
 408:Generated_Source\PSoC5/cyfitter_cfg.c **** 			{0x86u, 0x0Au},
 409:Generated_Source\PSoC5/cyfitter_cfg.c **** 			{0x88u, 0x0Cu},
 410:Generated_Source\PSoC5/cyfitter_cfg.c **** 			{0x8Au, 0x03u},
 411:Generated_Source\PSoC5/cyfitter_cfg.c **** 			{0x93u, 0x01u},
 412:Generated_Source\PSoC5/cyfitter_cfg.c **** 			{0xACu, 0x02u},
 413:Generated_Source\PSoC5/cyfitter_cfg.c **** 			{0xAEu, 0x0Du},
 414:Generated_Source\PSoC5/cyfitter_cfg.c **** 			{0xB0u, 0x02u},
 415:Generated_Source\PSoC5/cyfitter_cfg.c **** 			{0xB1u, 0x01u},
 416:Generated_Source\PSoC5/cyfitter_cfg.c **** 			{0xB2u, 0x08u},
 417:Generated_Source\PSoC5/cyfitter_cfg.c **** 			{0xB4u, 0x04u},
 418:Generated_Source\PSoC5/cyfitter_cfg.c **** 			{0xB6u, 0x01u},
 419:Generated_Source\PSoC5/cyfitter_cfg.c **** 			{0xB7u, 0x01u},
 420:Generated_Source\PSoC5/cyfitter_cfg.c **** 			{0xBEu, 0x55u},
 421:Generated_Source\PSoC5/cyfitter_cfg.c **** 			{0xBFu, 0x40u},
 422:Generated_Source\PSoC5/cyfitter_cfg.c **** 			{0xC0u, 0x54u},
 423:Generated_Source\PSoC5/cyfitter_cfg.c **** 			{0xC5u, 0xECu},
 424:Generated_Source\PSoC5/cyfitter_cfg.c **** 			{0xC7u, 0x20u},
 425:Generated_Source\PSoC5/cyfitter_cfg.c **** 			{0xC8u, 0x23u},
 426:Generated_Source\PSoC5/cyfitter_cfg.c **** 			{0xC9u, 0xFFu},
 427:Generated_Source\PSoC5/cyfitter_cfg.c **** 			{0xCAu, 0xFFu},
 428:Generated_Source\PSoC5/cyfitter_cfg.c **** 			{0xCBu, 0xFFu},
 429:Generated_Source\PSoC5/cyfitter_cfg.c **** 			{0xCFu, 0x01u},
 430:Generated_Source\PSoC5/cyfitter_cfg.c **** 			{0xD0u, 0x18u},
 431:Generated_Source\PSoC5/cyfitter_cfg.c **** 			{0xD2u, 0x80u},
 432:Generated_Source\PSoC5/cyfitter_cfg.c **** 			{0xD4u, 0x01u},
 433:Generated_Source\PSoC5/cyfitter_cfg.c **** 			{0xD8u, 0x04u},
 434:Generated_Source\PSoC5/cyfitter_cfg.c **** 			{0xD9u, 0x04u},
 435:Generated_Source\PSoC5/cyfitter_cfg.c **** 			{0xDAu, 0x04u},
 436:Generated_Source\PSoC5/cyfitter_cfg.c **** 			{0xDBu, 0x04u},
 437:Generated_Source\PSoC5/cyfitter_cfg.c **** 			{0xDFu, 0x01u},
 438:Generated_Source\PSoC5/cyfitter_cfg.c **** 			{0xE0u, 0x40u},
 439:Generated_Source\PSoC5/cyfitter_cfg.c **** 			{0xE2u, 0x40u},
 440:Generated_Source\PSoC5/cyfitter_cfg.c **** 			{0xE4u, 0x40u},
 441:Generated_Source\PSoC5/cyfitter_cfg.c **** 			{0xE5u, 0x40u},
 442:Generated_Source\PSoC5/cyfitter_cfg.c **** 			{0xE6u, 0x80u},
 443:Generated_Source\PSoC5/cyfitter_cfg.c **** 			{0xE8u, 0x80u},
 444:Generated_Source\PSoC5/cyfitter_cfg.c **** 			{0xEAu, 0x80u},
 445:Generated_Source\PSoC5/cyfitter_cfg.c **** 			{0xECu, 0x80u},
 446:Generated_Source\PSoC5/cyfitter_cfg.c **** 			{0xEEu, 0x80u},
 447:Generated_Source\PSoC5/cyfitter_cfg.c **** 			{0x03u, 0x28u},
 448:Generated_Source\PSoC5/cyfitter_cfg.c **** 			{0x0Eu, 0x2Au},
 449:Generated_Source\PSoC5/cyfitter_cfg.c **** 			{0x13u, 0x80u},
 450:Generated_Source\PSoC5/cyfitter_cfg.c **** 			{0x17u, 0x80u},
 451:Generated_Source\PSoC5/cyfitter_cfg.c **** 			{0x18u, 0x60u},
 452:Generated_Source\PSoC5/cyfitter_cfg.c **** 			{0x1Au, 0x05u},
 453:Generated_Source\PSoC5/cyfitter_cfg.c **** 			{0x1Eu, 0x6Au},
 454:Generated_Source\PSoC5/cyfitter_cfg.c **** 			{0x1Fu, 0x28u},
 455:Generated_Source\PSoC5/cyfitter_cfg.c **** 			{0x22u, 0x42u},
 456:Generated_Source\PSoC5/cyfitter_cfg.c **** 			{0x24u, 0x08u},
 457:Generated_Source\PSoC5/cyfitter_cfg.c **** 			{0x26u, 0x80u},
 458:Generated_Source\PSoC5/cyfitter_cfg.c **** 			{0x27u, 0xA0u},
 459:Generated_Source\PSoC5/cyfitter_cfg.c **** 			{0x2Fu, 0x28u},
 460:Generated_Source\PSoC5/cyfitter_cfg.c **** 			{0x31u, 0x02u},
ARM GAS  C:\Users\Rolf\AppData\Local\Temp\ccnUdI9r.s 			page 17


 461:Generated_Source\PSoC5/cyfitter_cfg.c **** 			{0x36u, 0x01u},
 462:Generated_Source\PSoC5/cyfitter_cfg.c **** 			{0x37u, 0x80u},
 463:Generated_Source\PSoC5/cyfitter_cfg.c **** 			{0x38u, 0x02u},
 464:Generated_Source\PSoC5/cyfitter_cfg.c **** 			{0x41u, 0x01u},
 465:Generated_Source\PSoC5/cyfitter_cfg.c **** 			{0x49u, 0x05u},
 466:Generated_Source\PSoC5/cyfitter_cfg.c **** 			{0x4Bu, 0x40u},
 467:Generated_Source\PSoC5/cyfitter_cfg.c **** 			{0x50u, 0x01u},
 468:Generated_Source\PSoC5/cyfitter_cfg.c **** 			{0x51u, 0x01u},
 469:Generated_Source\PSoC5/cyfitter_cfg.c **** 			{0x59u, 0x05u},
 470:Generated_Source\PSoC5/cyfitter_cfg.c **** 			{0x5Au, 0x80u},
 471:Generated_Source\PSoC5/cyfitter_cfg.c **** 			{0x71u, 0x02u},
 472:Generated_Source\PSoC5/cyfitter_cfg.c **** 			{0x73u, 0x40u},
 473:Generated_Source\PSoC5/cyfitter_cfg.c **** 			{0x7Eu, 0x02u},
 474:Generated_Source\PSoC5/cyfitter_cfg.c **** 			{0x80u, 0x40u},
 475:Generated_Source\PSoC5/cyfitter_cfg.c **** 			{0x8Au, 0x01u},
 476:Generated_Source\PSoC5/cyfitter_cfg.c **** 			{0xC0u, 0x06u},
 477:Generated_Source\PSoC5/cyfitter_cfg.c **** 			{0xC2u, 0xE0u},
 478:Generated_Source\PSoC5/cyfitter_cfg.c **** 			{0xC4u, 0x81u},
 479:Generated_Source\PSoC5/cyfitter_cfg.c **** 			{0xCAu, 0x60u},
 480:Generated_Source\PSoC5/cyfitter_cfg.c **** 			{0xCCu, 0x91u},
 481:Generated_Source\PSoC5/cyfitter_cfg.c **** 			{0xCEu, 0x01u},
 482:Generated_Source\PSoC5/cyfitter_cfg.c **** 			{0xD0u, 0x01u},
 483:Generated_Source\PSoC5/cyfitter_cfg.c **** 			{0xD2u, 0x08u},
 484:Generated_Source\PSoC5/cyfitter_cfg.c **** 			{0xD6u, 0x0Bu},
 485:Generated_Source\PSoC5/cyfitter_cfg.c **** 			{0xDEu, 0x10u},
 486:Generated_Source\PSoC5/cyfitter_cfg.c **** 			{0xE4u, 0x04u},
 487:Generated_Source\PSoC5/cyfitter_cfg.c **** 			{0x53u, 0x80u},
 488:Generated_Source\PSoC5/cyfitter_cfg.c **** 			{0x57u, 0x08u},
 489:Generated_Source\PSoC5/cyfitter_cfg.c **** 			{0x58u, 0x21u},
 490:Generated_Source\PSoC5/cyfitter_cfg.c **** 			{0x5Cu, 0x04u},
 491:Generated_Source\PSoC5/cyfitter_cfg.c **** 			{0x5Fu, 0x80u},
 492:Generated_Source\PSoC5/cyfitter_cfg.c **** 			{0x62u, 0x08u},
 493:Generated_Source\PSoC5/cyfitter_cfg.c **** 			{0x66u, 0x01u},
 494:Generated_Source\PSoC5/cyfitter_cfg.c **** 			{0x83u, 0x80u},
 495:Generated_Source\PSoC5/cyfitter_cfg.c **** 			{0x8Au, 0x08u},
 496:Generated_Source\PSoC5/cyfitter_cfg.c **** 			{0xD4u, 0x07u},
 497:Generated_Source\PSoC5/cyfitter_cfg.c **** 			{0xD6u, 0x07u},
 498:Generated_Source\PSoC5/cyfitter_cfg.c **** 			{0xD8u, 0x03u},
 499:Generated_Source\PSoC5/cyfitter_cfg.c **** 			{0xE4u, 0x01u},
 500:Generated_Source\PSoC5/cyfitter_cfg.c **** 			{0xA8u, 0x04u},
 501:Generated_Source\PSoC5/cyfitter_cfg.c **** 			{0xABu, 0x88u},
 502:Generated_Source\PSoC5/cyfitter_cfg.c **** 			{0xACu, 0x01u},
 503:Generated_Source\PSoC5/cyfitter_cfg.c **** 			{0xB4u, 0x20u},
 504:Generated_Source\PSoC5/cyfitter_cfg.c **** 			{0xB6u, 0x01u},
 505:Generated_Source\PSoC5/cyfitter_cfg.c **** 			{0xE8u, 0x02u},
 506:Generated_Source\PSoC5/cyfitter_cfg.c **** 			{0xECu, 0x02u},
 507:Generated_Source\PSoC5/cyfitter_cfg.c **** 			{0x00u, 0x01u},
 508:Generated_Source\PSoC5/cyfitter_cfg.c **** 			{0x0Eu, 0x01u},
 509:Generated_Source\PSoC5/cyfitter_cfg.c **** 		};
 510:Generated_Source\PSoC5/cyfitter_cfg.c **** 
 511:Generated_Source\PSoC5/cyfitter_cfg.c **** 
 512:Generated_Source\PSoC5/cyfitter_cfg.c **** 
 513:Generated_Source\PSoC5/cyfitter_cfg.c **** 		CYPACKED typedef struct {
 514:Generated_Source\PSoC5/cyfitter_cfg.c **** 			void CYFAR *address;
 515:Generated_Source\PSoC5/cyfitter_cfg.c **** 			uint16 size;
 516:Generated_Source\PSoC5/cyfitter_cfg.c **** 		} CYPACKED_ATTR cfg_memset_t;
 517:Generated_Source\PSoC5/cyfitter_cfg.c **** 
ARM GAS  C:\Users\Rolf\AppData\Local\Temp\ccnUdI9r.s 			page 18


 518:Generated_Source\PSoC5/cyfitter_cfg.c **** 		static const cfg_memset_t CYCODE cfg_memset_list[] = {
 519:Generated_Source\PSoC5/cyfitter_cfg.c **** 			/* address, size */
 520:Generated_Source\PSoC5/cyfitter_cfg.c **** 			{(void CYFAR *)(CYREG_PRT0_DR), 16u},
 521:Generated_Source\PSoC5/cyfitter_cfg.c **** 			{(void CYFAR *)(CYREG_PRT3_DR), 64u},
 522:Generated_Source\PSoC5/cyfitter_cfg.c **** 			{(void CYFAR *)(CYREG_PRT12_DR), 16u},
 523:Generated_Source\PSoC5/cyfitter_cfg.c **** 			{(void CYFAR *)(CYREG_PRT15_DR), 16u},
 524:Generated_Source\PSoC5/cyfitter_cfg.c **** 			{(void CYFAR *)(CYDEV_UCFG_B0_P0_U0_BASE), 4096u},
 525:Generated_Source\PSoC5/cyfitter_cfg.c **** 			{(void CYFAR *)(CYDEV_UCFG_B1_P2_U0_BASE), 2048u},
 526:Generated_Source\PSoC5/cyfitter_cfg.c **** 			{(void CYFAR *)(CYDEV_UCFG_DSI0_BASE), 2560u},
 527:Generated_Source\PSoC5/cyfitter_cfg.c **** 			{(void CYFAR *)(CYDEV_UCFG_DSI12_BASE), 512u},
 528:Generated_Source\PSoC5/cyfitter_cfg.c **** 			{(void CYFAR *)(CYREG_BCTL0_MDCLK_EN), 32u},
 529:Generated_Source\PSoC5/cyfitter_cfg.c **** 		};
 530:Generated_Source\PSoC5/cyfitter_cfg.c **** 
 531:Generated_Source\PSoC5/cyfitter_cfg.c **** 		uint8 CYDATA i;
 532:Generated_Source\PSoC5/cyfitter_cfg.c **** 
 533:Generated_Source\PSoC5/cyfitter_cfg.c **** 		/* Zero out critical memory blocks before beginning configuration */
 534:Generated_Source\PSoC5/cyfitter_cfg.c **** 		for (i = 0u; i < (sizeof(cfg_memset_list)/sizeof(cfg_memset_list[0])); i++)
 419              		.loc 1 534 0
 420 000e 0024     		movs	r4, #0
 421 0010 0CE0     		b	.L30
 422              	.LVL32:
 423              	.L31:
 424              	.LBB4:
 535:Generated_Source\PSoC5/cyfitter_cfg.c **** 		{
 536:Generated_Source\PSoC5/cyfitter_cfg.c **** 			const cfg_memset_t CYCODE * CYDATA ms = &cfg_memset_list[i];
 537:Generated_Source\PSoC5/cyfitter_cfg.c **** 			CYMEMZERO(ms->address, (size_t)(uint32)(ms->size));
 425              		.loc 1 537 0 discriminator 3
 426 0012 284D     		ldr	r5, .L33+4
 427 0014 6300     		lsls	r3, r4, #1
 428 0016 1919     		adds	r1, r3, r4
 429 0018 4A00     		lsls	r2, r1, #1
 430 001a 1146     		mov	r1, r2
 431 001c 2A44     		add	r2, r2, r5
 432 001e 0846     		mov	r0, r1
 433 0020 9188     		ldrh	r1, [r2, #4]
 434 0022 2858     		ldr	r0, [r5, r0]	@ unaligned
 435 0024 FFF7FEFF 		bl	CYMEMZERO
 436              	.LVL33:
 437              	.LBE4:
 534:Generated_Source\PSoC5/cyfitter_cfg.c **** 		{
 438              		.loc 1 534 0 discriminator 3
 439 0028 0134     		adds	r4, r4, #1
 440              	.LVL34:
 441 002a E4B2     		uxtb	r4, r4
 442              	.LVL35:
 443              	.L30:
 534:Generated_Source\PSoC5/cyfitter_cfg.c **** 		{
 444              		.loc 1 534 0 is_stmt 0 discriminator 1
 445 002c 082C     		cmp	r4, #8
 446 002e F0D9     		bls	.L31
 538:Generated_Source\PSoC5/cyfitter_cfg.c **** 		}
 539:Generated_Source\PSoC5/cyfitter_cfg.c **** 
 540:Generated_Source\PSoC5/cyfitter_cfg.c **** 		cfg_write_bytes32(cy_cfg_addr_table, cy_cfg_data_table);
 447              		.loc 1 540 0 is_stmt 1
 448 0030 204C     		ldr	r4, .L33+4
 449              	.LVL36:
 450 0032 04F13801 		add	r1, r4, #56
ARM GAS  C:\Users\Rolf\AppData\Local\Temp\ccnUdI9r.s 			page 19


 451 0036 04F5AC70 		add	r0, r4, #344
 452 003a FFF7FEFF 		bl	cfg_write_bytes32
 453              	.LVL37:
 541:Generated_Source\PSoC5/cyfitter_cfg.c **** 
 542:Generated_Source\PSoC5/cyfitter_cfg.c **** 		/* Enable digital routing */
 543:Generated_Source\PSoC5/cyfitter_cfg.c **** 		CY_SET_XTND_REG8((void CYFAR *)CYREG_BCTL0_BANK_CTL, CY_GET_XTND_REG8((void CYFAR *)CYREG_BCTL0_B
 454              		.loc 1 543 0
 455 003e 1E4A     		ldr	r2, .L33+8
 456 0040 1378     		ldrb	r3, [r2]	@ zero_extendqisi2
 457 0042 43F00203 		orr	r3, r3, #2
 458 0046 1370     		strb	r3, [r2]
 544:Generated_Source\PSoC5/cyfitter_cfg.c **** 		CY_SET_XTND_REG8((void CYFAR *)CYREG_BCTL1_BANK_CTL, CY_GET_XTND_REG8((void CYFAR *)CYREG_BCTL1_B
 459              		.loc 1 544 0
 460 0048 1032     		adds	r2, r2, #16
 461 004a 1378     		ldrb	r3, [r2]	@ zero_extendqisi2
 462 004c 43F00203 		orr	r3, r3, #2
 463 0050 1370     		strb	r3, [r2]
 545:Generated_Source\PSoC5/cyfitter_cfg.c **** 
 546:Generated_Source\PSoC5/cyfitter_cfg.c **** 		/* Enable UDB array */
 547:Generated_Source\PSoC5/cyfitter_cfg.c **** 		CY_SET_XTND_REG8((void CYFAR *)CYREG_PM_ACT_CFG0, CY_GET_XTND_REG8((void CYFAR *)CYREG_PM_ACT_CFG
 464              		.loc 1 547 0
 465 0052 1A4D     		ldr	r5, .L33+12
 466 0054 2B78     		ldrb	r3, [r5]	@ zero_extendqisi2
 467 0056 43F04003 		orr	r3, r3, #64
 468 005a 2B70     		strb	r3, [r5]
 548:Generated_Source\PSoC5/cyfitter_cfg.c **** 		CY_SET_XTND_REG8((void CYFAR *)CYREG_PM_AVAIL_CR2, CY_GET_XTND_REG8((void CYFAR *)CYREG_PM_AVAIL_
 469              		.loc 1 548 0
 470 005c A2F58632 		sub	r2, r2, #68608
 471 0060 513A     		subs	r2, r2, #81
 472 0062 1378     		ldrb	r3, [r2]	@ zero_extendqisi2
 473 0064 43F01003 		orr	r3, r3, #16
 474 0068 1370     		strb	r3, [r2]
 475              	.LBE3:
 549:Generated_Source\PSoC5/cyfitter_cfg.c **** 	}
 550:Generated_Source\PSoC5/cyfitter_cfg.c **** 
 551:Generated_Source\PSoC5/cyfitter_cfg.c **** 
 552:Generated_Source\PSoC5/cyfitter_cfg.c **** 	/* Perform second pass device configuration. These items must be configured in specific order afte
 553:Generated_Source\PSoC5/cyfitter_cfg.c **** 	CYCONFIGCPYCODE((void CYFAR *)(CYREG_PRT1_DM0), (const void CYCODE *)(BS_IOPINS0_1_VAL), 8u);
 476              		.loc 1 553 0
 477 006a 0822     		movs	r2, #8
 478 006c 04F5BC71 		add	r1, r4, #376
 479 0070 1348     		ldr	r0, .L33+16
 480 0072 FFF7FEFF 		bl	CYCONFIGCPYCODE
 481              	.LVL38:
 554:Generated_Source\PSoC5/cyfitter_cfg.c **** 	CYCONFIGCPYCODE((void CYFAR *)(CYREG_PRT2_DM0), (const void CYCODE *)(BS_IOPINS0_2_VAL), 8u);
 482              		.loc 1 554 0
 483 0076 0822     		movs	r2, #8
 484 0078 04F5C071 		add	r1, r4, #384
 485 007c 1148     		ldr	r0, .L33+20
 486 007e FFF7FEFF 		bl	CYCONFIGCPYCODE
 487              	.LVL39:
 555:Generated_Source\PSoC5/cyfitter_cfg.c **** 	/* Switch Boost to the precision bandgap reference from its internal reference */
 556:Generated_Source\PSoC5/cyfitter_cfg.c **** 	CY_SET_REG8((void CYXDATA *)CYREG_BOOST_CR2, (CY_GET_REG8((void CYXDATA *)CYREG_BOOST_CR2) | 0x08u
 488              		.loc 1 556 0
 489 0082 114A     		ldr	r2, .L33+24
 490 0084 1378     		ldrb	r3, [r2]	@ zero_extendqisi2
 491 0086 43F00803 		orr	r3, r3, #8
ARM GAS  C:\Users\Rolf\AppData\Local\Temp\ccnUdI9r.s 			page 20


 492 008a 1370     		strb	r3, [r2]
 557:Generated_Source\PSoC5/cyfitter_cfg.c **** 
 558:Generated_Source\PSoC5/cyfitter_cfg.c **** 	/* Set Flash Cycles based on max possible frequency in case a glitch occurs during ClockSetup(). *
 559:Generated_Source\PSoC5/cyfitter_cfg.c **** 	CY_SET_XTND_REG8((void CYFAR *)(CYREG_CACHE_CC_CTL), (((CYDEV_INSTRUCT_CACHE_ENABLED) != 0) ? 0x61
 493              		.loc 1 559 0
 494 008c 0F4C     		ldr	r4, .L33+28
 495 008e 6123     		movs	r3, #97
 496 0090 2370     		strb	r3, [r4]
 560:Generated_Source\PSoC5/cyfitter_cfg.c **** 	/* Setup clocks based on selections from Clock DWR */
 561:Generated_Source\PSoC5/cyfitter_cfg.c **** 	ClockSetup();
 497              		.loc 1 561 0
 498 0092 FFF7FEFF 		bl	ClockSetup
 499              	.LVL40:
 562:Generated_Source\PSoC5/cyfitter_cfg.c **** 	/* Set Flash Cycles based on newly configured 24.00MHz Bus Clock. */
 563:Generated_Source\PSoC5/cyfitter_cfg.c **** 	CY_SET_XTND_REG8((void CYFAR *)(CYREG_CACHE_CC_CTL), (((CYDEV_INSTRUCT_CACHE_ENABLED) != 0) ? 0x81
 500              		.loc 1 563 0
 501 0096 8123     		movs	r3, #129
 502 0098 2370     		strb	r3, [r4]
 564:Generated_Source\PSoC5/cyfitter_cfg.c **** 	CY_SET_XTND_REG8((void CYFAR *)(CYREG_PANTHER_WAITPIPE), 0x01u);
 503              		.loc 1 564 0
 504 009a 0122     		movs	r2, #1
 505 009c 0C4B     		ldr	r3, .L33+32
 506 009e 1A70     		strb	r2, [r3]
 565:Generated_Source\PSoC5/cyfitter_cfg.c **** 
 566:Generated_Source\PSoC5/cyfitter_cfg.c **** 	/* Perform basic analog initialization to defaults */
 567:Generated_Source\PSoC5/cyfitter_cfg.c **** 	AnalogSetDefault();
 507              		.loc 1 567 0
 508 00a0 FFF7FEFF 		bl	AnalogSetDefault
 509              	.LVL41:
 568:Generated_Source\PSoC5/cyfitter_cfg.c **** 
 569:Generated_Source\PSoC5/cyfitter_cfg.c **** 	/* Configure alternate active mode */
 570:Generated_Source\PSoC5/cyfitter_cfg.c **** 	CYCONFIGCPY((void CYFAR *)CYDEV_PM_STBY_BASE, (const void CYFAR *)CYDEV_PM_ACT_BASE, 14u);
 510              		.loc 1 570 0
 511 00a4 0E22     		movs	r2, #14
 512 00a6 2946     		mov	r1, r5
 513 00a8 0A48     		ldr	r0, .L33+36
 514 00aa FFF7FEFF 		bl	CYCONFIGCPY
 515              	.LVL42:
 516 00ae 38BD     		pop	{r3, r4, r5, pc}
 517              	.L34:
 518              		.align	2
 519              	.L33:
 520 00b0 E8460040 		.word	1073759976
 521 00b4 00000000 		.word	.LANCHOR0
 522 00b8 03500140 		.word	1073827843
 523 00bc A0430040 		.word	1073759136
 524 00c0 12510040 		.word	1073762578
 525 00c4 22510040 		.word	1073762594
 526 00c8 22430040 		.word	1073759010
 527 00cc 00480040 		.word	1073760256
 528 00d0 04000840 		.word	1074266116
 529 00d4 B0430040 		.word	1073759152
 530              		.cfi_endproc
 531              	.LFE8:
 532              		.size	cyfitter_cfg, .-cyfitter_cfg
 533              		.section	.rodata
 534              		.align	2
ARM GAS  C:\Users\Rolf\AppData\Local\Temp\ccnUdI9r.s 			page 21


 535              		.set	.LANCHOR0,. + 0
 536              		.type	cfg_memset_list.5021, %object
 537              		.size	cfg_memset_list.5021, 54
 538              	cfg_memset_list.5021:
 539 0000 00510040 		.word	1073762560
 540 0004 1000     		.short	16
 541 0006 30510040 		.4byte	1073762608
 542 000a 4000     		.short	64
 543 000c C0510040 		.word	1073762752
 544 0010 1000     		.short	16
 545 0012 F0510040 		.4byte	1073762800
 546 0016 1000     		.short	16
 547 0018 00000140 		.word	1073807360
 548 001c 0010     		.short	4096
 549 001e 00140140 		.4byte	1073812480
 550 0022 0008     		.short	2048
 551 0024 00400140 		.word	1073823744
 552 0028 000A     		.short	2560
 553 002a 004C0140 		.4byte	1073826816
 554 002e 0002     		.short	512
 555 0030 00500140 		.word	1073827840
 556 0034 2000     		.short	32
 557 0036 0000     		.space	2
 558              		.type	cy_cfg_data_table.5016, %object
 559              		.size	cy_cfg_data_table.5016, 286
 560              	cy_cfg_data_table.5016:
 561 0038 10       		.byte	16
 562 0039 A3       		.byte	-93
 563 003a 11       		.byte	17
 564 003b C5       		.byte	-59
 565 003c 8D       		.byte	-115
 566 003d 0D       		.byte	13
 567 003e A8       		.byte	-88
 568 003f 14       		.byte	20
 569 0040 AB       		.byte	-85
 570 0041 20       		.byte	32
 571 0042 AE       		.byte	-82
 572 0043 04       		.byte	4
 573 0044 B6       		.byte	-74
 574 0045 C0       		.byte	-64
 575 0046 E8       		.byte	-24
 576 0047 07       		.byte	7
 577 0048 EC       		.byte	-20
 578 0049 01       		.byte	1
 579 004a 11       		.byte	17
 580 004b 01       		.byte	1
 581 004c 13       		.byte	19
 582 004d 02       		.byte	2
 583 004e 14       		.byte	20
 584 004f 54       		.byte	84
 585 0050 16       		.byte	22
 586 0051 A8       		.byte	-88
 587 0052 18       		.byte	24
 588 0053 4A       		.byte	74
 589 0054 1A       		.byte	26
 590 0055 A5       		.byte	-91
 591 0056 1C       		.byte	28
ARM GAS  C:\Users\Rolf\AppData\Local\Temp\ccnUdI9r.s 			page 22


 592 0057 25       		.byte	37
 593 0058 1D       		.byte	29
 594 0059 1D       		.byte	29
 595 005a 1E       		.byte	30
 596 005b 5A       		.byte	90
 597 005c 1F       		.byte	31
 598 005d 02       		.byte	2
 599 005e 25       		.byte	37
 600 005f 16       		.byte	22
 601 0060 27       		.byte	39
 602 0061 09       		.byte	9
 603 0062 29       		.byte	41
 604 0063 0E       		.byte	14
 605 0064 2B       		.byte	43
 606 0065 11       		.byte	17
 607 0066 2C       		.byte	44
 608 0067 51       		.byte	81
 609 0068 2E       		.byte	46
 610 0069 A2       		.byte	-94
 611 006a 30       		.byte	48
 612 006b 80       		.byte	-128
 613 006c 31       		.byte	49
 614 006d 03       		.byte	3
 615 006e 32       		.byte	50
 616 006f 0F       		.byte	15
 617 0070 33       		.byte	51
 618 0071 04       		.byte	4
 619 0072 34       		.byte	52
 620 0073 40       		.byte	64
 621 0074 35       		.byte	53
 622 0075 08       		.byte	8
 623 0076 36       		.byte	54
 624 0077 30       		.byte	48
 625 0078 37       		.byte	55
 626 0079 10       		.byte	16
 627 007a 3A       		.byte	58
 628 007b B8       		.byte	-72
 629 007c 3B       		.byte	59
 630 007d 02       		.byte	2
 631 007e 3E       		.byte	62
 632 007f 01       		.byte	1
 633 0080 3F       		.byte	63
 634 0081 54       		.byte	84
 635 0082 58       		.byte	88
 636 0083 08       		.byte	8
 637 0084 59       		.byte	89
 638 0085 08       		.byte	8
 639 0086 5F       		.byte	95
 640 0087 01       		.byte	1
 641 0088 83       		.byte	-125
 642 0089 01       		.byte	1
 643 008a 84       		.byte	-124
 644 008b 05       		.byte	5
 645 008c 86       		.byte	-122
 646 008d 0A       		.byte	10
 647 008e 88       		.byte	-120
 648 008f 0C       		.byte	12
ARM GAS  C:\Users\Rolf\AppData\Local\Temp\ccnUdI9r.s 			page 23


 649 0090 8A       		.byte	-118
 650 0091 03       		.byte	3
 651 0092 93       		.byte	-109
 652 0093 01       		.byte	1
 653 0094 AC       		.byte	-84
 654 0095 02       		.byte	2
 655 0096 AE       		.byte	-82
 656 0097 0D       		.byte	13
 657 0098 B0       		.byte	-80
 658 0099 02       		.byte	2
 659 009a B1       		.byte	-79
 660 009b 01       		.byte	1
 661 009c B2       		.byte	-78
 662 009d 08       		.byte	8
 663 009e B4       		.byte	-76
 664 009f 04       		.byte	4
 665 00a0 B6       		.byte	-74
 666 00a1 01       		.byte	1
 667 00a2 B7       		.byte	-73
 668 00a3 01       		.byte	1
 669 00a4 BE       		.byte	-66
 670 00a5 55       		.byte	85
 671 00a6 BF       		.byte	-65
 672 00a7 40       		.byte	64
 673 00a8 C0       		.byte	-64
 674 00a9 54       		.byte	84
 675 00aa C5       		.byte	-59
 676 00ab EC       		.byte	-20
 677 00ac C7       		.byte	-57
 678 00ad 20       		.byte	32
 679 00ae C8       		.byte	-56
 680 00af 23       		.byte	35
 681 00b0 C9       		.byte	-55
 682 00b1 FF       		.byte	-1
 683 00b2 CA       		.byte	-54
 684 00b3 FF       		.byte	-1
 685 00b4 CB       		.byte	-53
 686 00b5 FF       		.byte	-1
 687 00b6 CF       		.byte	-49
 688 00b7 01       		.byte	1
 689 00b8 D0       		.byte	-48
 690 00b9 18       		.byte	24
 691 00ba D2       		.byte	-46
 692 00bb 80       		.byte	-128
 693 00bc D4       		.byte	-44
 694 00bd 01       		.byte	1
 695 00be D8       		.byte	-40
 696 00bf 04       		.byte	4
 697 00c0 D9       		.byte	-39
 698 00c1 04       		.byte	4
 699 00c2 DA       		.byte	-38
 700 00c3 04       		.byte	4
 701 00c4 DB       		.byte	-37
 702 00c5 04       		.byte	4
 703 00c6 DF       		.byte	-33
 704 00c7 01       		.byte	1
 705 00c8 E0       		.byte	-32
ARM GAS  C:\Users\Rolf\AppData\Local\Temp\ccnUdI9r.s 			page 24


 706 00c9 40       		.byte	64
 707 00ca E2       		.byte	-30
 708 00cb 40       		.byte	64
 709 00cc E4       		.byte	-28
 710 00cd 40       		.byte	64
 711 00ce E5       		.byte	-27
 712 00cf 40       		.byte	64
 713 00d0 E6       		.byte	-26
 714 00d1 80       		.byte	-128
 715 00d2 E8       		.byte	-24
 716 00d3 80       		.byte	-128
 717 00d4 EA       		.byte	-22
 718 00d5 80       		.byte	-128
 719 00d6 EC       		.byte	-20
 720 00d7 80       		.byte	-128
 721 00d8 EE       		.byte	-18
 722 00d9 80       		.byte	-128
 723 00da 03       		.byte	3
 724 00db 28       		.byte	40
 725 00dc 0E       		.byte	14
 726 00dd 2A       		.byte	42
 727 00de 13       		.byte	19
 728 00df 80       		.byte	-128
 729 00e0 17       		.byte	23
 730 00e1 80       		.byte	-128
 731 00e2 18       		.byte	24
 732 00e3 60       		.byte	96
 733 00e4 1A       		.byte	26
 734 00e5 05       		.byte	5
 735 00e6 1E       		.byte	30
 736 00e7 6A       		.byte	106
 737 00e8 1F       		.byte	31
 738 00e9 28       		.byte	40
 739 00ea 22       		.byte	34
 740 00eb 42       		.byte	66
 741 00ec 24       		.byte	36
 742 00ed 08       		.byte	8
 743 00ee 26       		.byte	38
 744 00ef 80       		.byte	-128
 745 00f0 27       		.byte	39
 746 00f1 A0       		.byte	-96
 747 00f2 2F       		.byte	47
 748 00f3 28       		.byte	40
 749 00f4 31       		.byte	49
 750 00f5 02       		.byte	2
 751 00f6 36       		.byte	54
 752 00f7 01       		.byte	1
 753 00f8 37       		.byte	55
 754 00f9 80       		.byte	-128
 755 00fa 38       		.byte	56
 756 00fb 02       		.byte	2
 757 00fc 41       		.byte	65
 758 00fd 01       		.byte	1
 759 00fe 49       		.byte	73
 760 00ff 05       		.byte	5
 761 0100 4B       		.byte	75
 762 0101 40       		.byte	64
ARM GAS  C:\Users\Rolf\AppData\Local\Temp\ccnUdI9r.s 			page 25


 763 0102 50       		.byte	80
 764 0103 01       		.byte	1
 765 0104 51       		.byte	81
 766 0105 01       		.byte	1
 767 0106 59       		.byte	89
 768 0107 05       		.byte	5
 769 0108 5A       		.byte	90
 770 0109 80       		.byte	-128
 771 010a 71       		.byte	113
 772 010b 02       		.byte	2
 773 010c 73       		.byte	115
 774 010d 40       		.byte	64
 775 010e 7E       		.byte	126
 776 010f 02       		.byte	2
 777 0110 80       		.byte	-128
 778 0111 40       		.byte	64
 779 0112 8A       		.byte	-118
 780 0113 01       		.byte	1
 781 0114 C0       		.byte	-64
 782 0115 06       		.byte	6
 783 0116 C2       		.byte	-62
 784 0117 E0       		.byte	-32
 785 0118 C4       		.byte	-60
 786 0119 81       		.byte	-127
 787 011a CA       		.byte	-54
 788 011b 60       		.byte	96
 789 011c CC       		.byte	-52
 790 011d 91       		.byte	-111
 791 011e CE       		.byte	-50
 792 011f 01       		.byte	1
 793 0120 D0       		.byte	-48
 794 0121 01       		.byte	1
 795 0122 D2       		.byte	-46
 796 0123 08       		.byte	8
 797 0124 D6       		.byte	-42
 798 0125 0B       		.byte	11
 799 0126 DE       		.byte	-34
 800 0127 10       		.byte	16
 801 0128 E4       		.byte	-28
 802 0129 04       		.byte	4
 803 012a 53       		.byte	83
 804 012b 80       		.byte	-128
 805 012c 57       		.byte	87
 806 012d 08       		.byte	8
 807 012e 58       		.byte	88
 808 012f 21       		.byte	33
 809 0130 5C       		.byte	92
 810 0131 04       		.byte	4
 811 0132 5F       		.byte	95
 812 0133 80       		.byte	-128
 813 0134 62       		.byte	98
 814 0135 08       		.byte	8
 815 0136 66       		.byte	102
 816 0137 01       		.byte	1
 817 0138 83       		.byte	-125
 818 0139 80       		.byte	-128
 819 013a 8A       		.byte	-118
ARM GAS  C:\Users\Rolf\AppData\Local\Temp\ccnUdI9r.s 			page 26


 820 013b 08       		.byte	8
 821 013c D4       		.byte	-44
 822 013d 07       		.byte	7
 823 013e D6       		.byte	-42
 824 013f 07       		.byte	7
 825 0140 D8       		.byte	-40
 826 0141 03       		.byte	3
 827 0142 E4       		.byte	-28
 828 0143 01       		.byte	1
 829 0144 A8       		.byte	-88
 830 0145 04       		.byte	4
 831 0146 AB       		.byte	-85
 832 0147 88       		.byte	-120
 833 0148 AC       		.byte	-84
 834 0149 01       		.byte	1
 835 014a B4       		.byte	-76
 836 014b 20       		.byte	32
 837 014c B6       		.byte	-74
 838 014d 01       		.byte	1
 839 014e E8       		.byte	-24
 840 014f 02       		.byte	2
 841 0150 EC       		.byte	-20
 842 0151 02       		.byte	2
 843 0152 00       		.byte	0
 844 0153 01       		.byte	1
 845 0154 0E       		.byte	14
 846 0155 01       		.byte	1
 847 0156 0000     		.space	2
 848              		.type	cy_cfg_addr_table.5015, %object
 849              		.size	cy_cfg_addr_table.5015, 32
 850              	cy_cfg_addr_table.5015:
 851 0158 02520040 		.word	1073762818
 852 015c 01640040 		.word	1073767425
 853 0160 060B0140 		.word	1073810182
 854 0164 480C0140 		.word	1073810504
 855 0168 280D0140 		.word	1073810728
 856 016c 0D450140 		.word	1073825037
 857 0170 07460140 		.word	1073825287
 858 0174 02500140 		.word	1073827842
 859              		.type	BS_IOPINS0_1_VAL.5013, %object
 860              		.size	BS_IOPINS0_1_VAL.5013, 8
 861              	BS_IOPINS0_1_VAL.5013:
 862 0178 00       		.byte	0
 863 0179 0B       		.byte	11
 864 017a 0B       		.byte	11
 865 017b 00       		.byte	0
 866 017c 00       		.byte	0
 867 017d 00       		.byte	0
 868 017e 00       		.byte	0
 869 017f 00       		.byte	0
 870              		.type	BS_IOPINS0_2_VAL.5014, %object
 871              		.size	BS_IOPINS0_2_VAL.5014, 8
 872              	BS_IOPINS0_2_VAL.5014:
 873 0180 00       		.byte	0
 874 0181 FF       		.byte	-1
 875 0182 FF       		.byte	-1
 876 0183 00       		.byte	0
ARM GAS  C:\Users\Rolf\AppData\Local\Temp\ccnUdI9r.s 			page 27


 877 0184 FF       		.byte	-1
 878 0185 00       		.byte	0
 879 0186 00       		.byte	0
 880 0187 00       		.byte	0
 881              		.text
 882              	.Letext0:
 883              		.file 2 "c:\\program files (x86)\\cypress\\psoc creator\\4.4\\psoc creator\\import\\gnu\\arm\\5.4.
 884              		.file 3 "Generated_Source\\PSoC5\\cytypes.h"
 885              		.file 4 "Generated_Source\\PSoC5\\CyLib.h"